
os.elf:     file format elf64-littleriscv


Disassembly of section .text:

0000000080000000 <_start>:
    80000000:	f14022f3          	csrr	t0,mhartid
    80000004:	00028213          	mv	tp,t0
    80000008:	02029c63          	bnez	t0,80000040 <park>
    8000000c:	00004517          	auipc	a0,0x4
    80000010:	ffc50513          	addi	a0,a0,-4 # 80004008 <out_buf>
    80000014:	00007597          	auipc	a1,0x7
    80000018:	55858593          	addi	a1,a1,1368 # 8000756c <_bss_end>
    8000001c:	00b57863          	bgeu	a0,a1,8000002c <_start+0x2c>
    80000020:	00053023          	sd	zero,0(a0)
    80000024:	00850513          	addi	a0,a0,8
    80000028:	feb56ce3          	bltu	a0,a1,80000020 <_start+0x20>
    8000002c:	00a29293          	slli	t0,t0,0xa
    80000030:	00000117          	auipc	sp,0x0
    80000034:	41810113          	addi	sp,sp,1048 # 80000448 <stacks+0x400>
    80000038:	00510133          	add	sp,sp,t0
    8000003c:	2480206f          	j	80002284 <start_kernel>

0000000080000040 <park>:
    80000040:	0000006f          	j	80000040 <park>
    80000044:	00000013          	nop

0000000080000048 <stacks>:
	...

0000000080002050 <trap_vector>:
    80002050:	340f9ff3          	csrrw	t6,mscratch,t6
    80002054:	001fb023          	sd	ra,0(t6)
    80002058:	002fb423          	sd	sp,8(t6)
    8000205c:	003fb823          	sd	gp,16(t6)
    80002060:	004fbc23          	sd	tp,24(t6)
    80002064:	025fb023          	sd	t0,32(t6)
    80002068:	026fb423          	sd	t1,40(t6)
    8000206c:	027fb823          	sd	t2,48(t6)
    80002070:	028fbc23          	sd	s0,56(t6)
    80002074:	049fb023          	sd	s1,64(t6)
    80002078:	04afb423          	sd	a0,72(t6)
    8000207c:	04bfb823          	sd	a1,80(t6)
    80002080:	04cfbc23          	sd	a2,88(t6)
    80002084:	06dfb023          	sd	a3,96(t6)
    80002088:	06efb423          	sd	a4,104(t6)
    8000208c:	06ffb823          	sd	a5,112(t6)
    80002090:	070fbc23          	sd	a6,120(t6)
    80002094:	091fb023          	sd	a7,128(t6)
    80002098:	092fb423          	sd	s2,136(t6)
    8000209c:	093fb823          	sd	s3,144(t6)
    800020a0:	094fbc23          	sd	s4,152(t6)
    800020a4:	0b5fb023          	sd	s5,160(t6)
    800020a8:	0b6fb423          	sd	s6,168(t6)
    800020ac:	0b7fb823          	sd	s7,176(t6)
    800020b0:	0b8fbc23          	sd	s8,184(t6)
    800020b4:	0d9fb023          	sd	s9,192(t6)
    800020b8:	0dafb423          	sd	s10,200(t6)
    800020bc:	0dbfb823          	sd	s11,208(t6)
    800020c0:	0dcfbc23          	sd	t3,216(t6)
    800020c4:	0fdfb023          	sd	t4,224(t6)
    800020c8:	0fefb423          	sd	t5,232(t6)
    800020cc:	000f8f13          	mv	t5,t6
    800020d0:	34002ff3          	csrr	t6,mscratch
    800020d4:	0fff3823          	sd	t6,240(t5)
    800020d8:	340f1073          	csrw	mscratch,t5
    800020dc:	34102573          	csrr	a0,mepc
    800020e0:	342025f3          	csrr	a1,mcause
    800020e4:	240010ef          	jal	ra,80003324 <trap_handler>
    800020e8:	34151073          	csrw	mepc,a0
    800020ec:	34002ff3          	csrr	t6,mscratch
    800020f0:	000fb083          	ld	ra,0(t6)
    800020f4:	008fb103          	ld	sp,8(t6)
    800020f8:	010fb183          	ld	gp,16(t6)
    800020fc:	018fb203          	ld	tp,24(t6)
    80002100:	020fb283          	ld	t0,32(t6)
    80002104:	028fb303          	ld	t1,40(t6)
    80002108:	030fb383          	ld	t2,48(t6)
    8000210c:	038fb403          	ld	s0,56(t6)
    80002110:	040fb483          	ld	s1,64(t6)
    80002114:	048fb503          	ld	a0,72(t6)
    80002118:	050fb583          	ld	a1,80(t6)
    8000211c:	058fb603          	ld	a2,88(t6)
    80002120:	060fb683          	ld	a3,96(t6)
    80002124:	068fb703          	ld	a4,104(t6)
    80002128:	070fb783          	ld	a5,112(t6)
    8000212c:	078fb803          	ld	a6,120(t6)
    80002130:	080fb883          	ld	a7,128(t6)
    80002134:	088fb903          	ld	s2,136(t6)
    80002138:	090fb983          	ld	s3,144(t6)
    8000213c:	098fba03          	ld	s4,152(t6)
    80002140:	0a0fba83          	ld	s5,160(t6)
    80002144:	0a8fbb03          	ld	s6,168(t6)
    80002148:	0b0fbb83          	ld	s7,176(t6)
    8000214c:	0b8fbc03          	ld	s8,184(t6)
    80002150:	0c0fbc83          	ld	s9,192(t6)
    80002154:	0c8fbd03          	ld	s10,200(t6)
    80002158:	0d0fbd83          	ld	s11,208(t6)
    8000215c:	0d8fbe03          	ld	t3,216(t6)
    80002160:	0e0fbe83          	ld	t4,224(t6)
    80002164:	0e8fbf03          	ld	t5,232(t6)
    80002168:	0f0fbf83          	ld	t6,240(t6)
    8000216c:	30200073          	mret

0000000080002170 <switch_to>:
    80002170:	340f9ff3          	csrrw	t6,mscratch,t6
    80002174:	080f8463          	beqz	t6,800021fc <switch_to+0x8c>
    80002178:	001fb023          	sd	ra,0(t6)
    8000217c:	002fb423          	sd	sp,8(t6)
    80002180:	003fb823          	sd	gp,16(t6)
    80002184:	004fbc23          	sd	tp,24(t6)
    80002188:	025fb023          	sd	t0,32(t6)
    8000218c:	026fb423          	sd	t1,40(t6)
    80002190:	027fb823          	sd	t2,48(t6)
    80002194:	028fbc23          	sd	s0,56(t6)
    80002198:	049fb023          	sd	s1,64(t6)
    8000219c:	04afb423          	sd	a0,72(t6)
    800021a0:	04bfb823          	sd	a1,80(t6)
    800021a4:	04cfbc23          	sd	a2,88(t6)
    800021a8:	06dfb023          	sd	a3,96(t6)
    800021ac:	06efb423          	sd	a4,104(t6)
    800021b0:	06ffb823          	sd	a5,112(t6)
    800021b4:	070fbc23          	sd	a6,120(t6)
    800021b8:	091fb023          	sd	a7,128(t6)
    800021bc:	092fb423          	sd	s2,136(t6)
    800021c0:	093fb823          	sd	s3,144(t6)
    800021c4:	094fbc23          	sd	s4,152(t6)
    800021c8:	0b5fb023          	sd	s5,160(t6)
    800021cc:	0b6fb423          	sd	s6,168(t6)
    800021d0:	0b7fb823          	sd	s7,176(t6)
    800021d4:	0b8fbc23          	sd	s8,184(t6)
    800021d8:	0d9fb023          	sd	s9,192(t6)
    800021dc:	0dafb423          	sd	s10,200(t6)
    800021e0:	0dbfb823          	sd	s11,208(t6)
    800021e4:	0dcfbc23          	sd	t3,216(t6)
    800021e8:	0fdfb023          	sd	t4,224(t6)
    800021ec:	0fefb423          	sd	t5,232(t6)
    800021f0:	000f8f13          	mv	t5,t6
    800021f4:	34002ff3          	csrr	t6,mscratch
    800021f8:	0fff3823          	sd	t6,240(t5)
    800021fc:	34051073          	csrw	mscratch,a0
    80002200:	00050f93          	mv	t6,a0
    80002204:	000fb083          	ld	ra,0(t6)
    80002208:	008fb103          	ld	sp,8(t6)
    8000220c:	010fb183          	ld	gp,16(t6)
    80002210:	018fb203          	ld	tp,24(t6)
    80002214:	020fb283          	ld	t0,32(t6)
    80002218:	028fb303          	ld	t1,40(t6)
    8000221c:	030fb383          	ld	t2,48(t6)
    80002220:	038fb403          	ld	s0,56(t6)
    80002224:	040fb483          	ld	s1,64(t6)
    80002228:	048fb503          	ld	a0,72(t6)
    8000222c:	050fb583          	ld	a1,80(t6)
    80002230:	058fb603          	ld	a2,88(t6)
    80002234:	060fb683          	ld	a3,96(t6)
    80002238:	068fb703          	ld	a4,104(t6)
    8000223c:	070fb783          	ld	a5,112(t6)
    80002240:	078fb803          	ld	a6,120(t6)
    80002244:	080fb883          	ld	a7,128(t6)
    80002248:	088fb903          	ld	s2,136(t6)
    8000224c:	090fb983          	ld	s3,144(t6)
    80002250:	098fba03          	ld	s4,152(t6)
    80002254:	0a0fba83          	ld	s5,160(t6)
    80002258:	0a8fbb03          	ld	s6,168(t6)
    8000225c:	0b0fbb83          	ld	s7,176(t6)
    80002260:	0b8fbc03          	ld	s8,184(t6)
    80002264:	0c0fbc83          	ld	s9,192(t6)
    80002268:	0c8fbd03          	ld	s10,200(t6)
    8000226c:	0d0fbd83          	ld	s11,208(t6)
    80002270:	0d8fbe03          	ld	t3,216(t6)
    80002274:	0e0fbe83          	ld	t4,224(t6)
    80002278:	0e8fbf03          	ld	t5,232(t6)
    8000227c:	0f0fbf83          	ld	t6,240(t6)
    80002280:	00008067          	ret

0000000080002284 <start_kernel>:
    80002284:	ff010113          	addi	sp,sp,-16
    80002288:	00113423          	sd	ra,8(sp)
    8000228c:	00813023          	sd	s0,0(sp)
    80002290:	01010413          	addi	s0,sp,16
    80002294:	02c000ef          	jal	ra,800022c0 <uart_init>
    80002298:	00001517          	auipc	a0,0x1
    8000229c:	20850513          	addi	a0,a0,520 # 800034a0 <BSS_END+0x8>
    800022a0:	0fc000ef          	jal	ra,8000239c <uart_puts>
    800022a4:	0a9000ef          	jal	ra,80002b4c <page_init>
    800022a8:	048010ef          	jal	ra,800032f0 <trap_init>
    800022ac:	521000ef          	jal	ra,80002fcc <sched_init>
    800022b0:	7dd000ef          	jal	ra,8000328c <os_main>
    800022b4:	545000ef          	jal	ra,80002ff8 <schedule>
    800022b8:	00000013          	nop
    800022bc:	ffdff06f          	j	800022b8 <start_kernel+0x34>

00000000800022c0 <uart_init>:
    800022c0:	fe010113          	addi	sp,sp,-32
    800022c4:	00813c23          	sd	s0,24(sp)
    800022c8:	02010413          	addi	s0,sp,32
    800022cc:	00500793          	li	a5,5
    800022d0:	01d79793          	slli	a5,a5,0x1d
    800022d4:	3f978793          	addi	a5,a5,1017
    800022d8:	00078023          	sb	zero,0(a5)
    800022dc:	00500793          	li	a5,5
    800022e0:	01d79793          	slli	a5,a5,0x1d
    800022e4:	3fb78793          	addi	a5,a5,1019
    800022e8:	0007c783          	lbu	a5,0(a5)
    800022ec:	fef407a3          	sb	a5,-17(s0)
    800022f0:	00500793          	li	a5,5
    800022f4:	01d79793          	slli	a5,a5,0x1d
    800022f8:	3fb78793          	addi	a5,a5,1019
    800022fc:	fef44703          	lbu	a4,-17(s0)
    80002300:	f8076713          	ori	a4,a4,-128
    80002304:	0ff77713          	zext.b	a4,a4
    80002308:	00e78023          	sb	a4,0(a5)
    8000230c:	00500793          	li	a5,5
    80002310:	01d79793          	slli	a5,a5,0x1d
    80002314:	3f878793          	addi	a5,a5,1016
    80002318:	00300713          	li	a4,3
    8000231c:	00e78023          	sb	a4,0(a5)
    80002320:	00500793          	li	a5,5
    80002324:	01d79793          	slli	a5,a5,0x1d
    80002328:	3f978793          	addi	a5,a5,1017
    8000232c:	00078023          	sb	zero,0(a5)
    80002330:	fe0407a3          	sb	zero,-17(s0)
    80002334:	00500793          	li	a5,5
    80002338:	01d79793          	slli	a5,a5,0x1d
    8000233c:	3fb78793          	addi	a5,a5,1019
    80002340:	fef44703          	lbu	a4,-17(s0)
    80002344:	00376713          	ori	a4,a4,3
    80002348:	0ff77713          	zext.b	a4,a4
    8000234c:	00e78023          	sb	a4,0(a5)
    80002350:	00000013          	nop
    80002354:	01813403          	ld	s0,24(sp)
    80002358:	02010113          	addi	sp,sp,32
    8000235c:	00008067          	ret

0000000080002360 <uart_putc>:
    80002360:	fe010113          	addi	sp,sp,-32
    80002364:	00813c23          	sd	s0,24(sp)
    80002368:	02010413          	addi	s0,sp,32
    8000236c:	00050793          	mv	a5,a0
    80002370:	fef407a3          	sb	a5,-17(s0)
    80002374:	00500793          	li	a5,5
    80002378:	01d79793          	slli	a5,a5,0x1d
    8000237c:	3f878713          	addi	a4,a5,1016
    80002380:	fef44783          	lbu	a5,-17(s0)
    80002384:	00f70023          	sb	a5,0(a4)
    80002388:	0007879b          	sext.w	a5,a5
    8000238c:	00078513          	mv	a0,a5
    80002390:	01813403          	ld	s0,24(sp)
    80002394:	02010113          	addi	sp,sp,32
    80002398:	00008067          	ret

000000008000239c <uart_puts>:
    8000239c:	fe010113          	addi	sp,sp,-32
    800023a0:	00113c23          	sd	ra,24(sp)
    800023a4:	00813823          	sd	s0,16(sp)
    800023a8:	02010413          	addi	s0,sp,32
    800023ac:	fea43423          	sd	a0,-24(s0)
    800023b0:	0200006f          	j	800023d0 <uart_puts+0x34>
    800023b4:	fe843783          	ld	a5,-24(s0)
    800023b8:	0007c783          	lbu	a5,0(a5)
    800023bc:	00078513          	mv	a0,a5
    800023c0:	fa1ff0ef          	jal	ra,80002360 <uart_putc>
    800023c4:	fe843783          	ld	a5,-24(s0)
    800023c8:	00178793          	addi	a5,a5,1
    800023cc:	fef43423          	sd	a5,-24(s0)
    800023d0:	fe843783          	ld	a5,-24(s0)
    800023d4:	0007c783          	lbu	a5,0(a5)
    800023d8:	fc079ee3          	bnez	a5,800023b4 <uart_puts+0x18>
    800023dc:	00000013          	nop
    800023e0:	00000013          	nop
    800023e4:	01813083          	ld	ra,24(sp)
    800023e8:	01013403          	ld	s0,16(sp)
    800023ec:	02010113          	addi	sp,sp,32
    800023f0:	00008067          	ret

00000000800023f4 <_vsnprintf>:
    800023f4:	f8010113          	addi	sp,sp,-128
    800023f8:	06813c23          	sd	s0,120(sp)
    800023fc:	08010413          	addi	s0,sp,128
    80002400:	f8a43c23          	sd	a0,-104(s0)
    80002404:	f8b43823          	sd	a1,-112(s0)
    80002408:	f8c43423          	sd	a2,-120(s0)
    8000240c:	f8d43023          	sd	a3,-128(s0)
    80002410:	fe042623          	sw	zero,-20(s0)
    80002414:	fe042423          	sw	zero,-24(s0)
    80002418:	fe043023          	sd	zero,-32(s0)
    8000241c:	4280006f          	j	80002844 <_vsnprintf+0x450>
    80002420:	fec42783          	lw	a5,-20(s0)
    80002424:	0007879b          	sext.w	a5,a5
    80002428:	3a078863          	beqz	a5,800027d8 <_vsnprintf+0x3e4>
    8000242c:	f8843783          	ld	a5,-120(s0)
    80002430:	0007c783          	lbu	a5,0(a5)
    80002434:	0007879b          	sext.w	a5,a5
    80002438:	f9d7869b          	addiw	a3,a5,-99
    8000243c:	0006871b          	sext.w	a4,a3
    80002440:	01500793          	li	a5,21
    80002444:	3ee7e863          	bltu	a5,a4,80002834 <_vsnprintf+0x440>
    80002448:	02069793          	slli	a5,a3,0x20
    8000244c:	0207d793          	srli	a5,a5,0x20
    80002450:	00279713          	slli	a4,a5,0x2
    80002454:	00001797          	auipc	a5,0x1
    80002458:	05c78793          	addi	a5,a5,92 # 800034b0 <BSS_END+0x18>
    8000245c:	00f707b3          	add	a5,a4,a5
    80002460:	0007a783          	lw	a5,0(a5)
    80002464:	0007871b          	sext.w	a4,a5
    80002468:	00001797          	auipc	a5,0x1
    8000246c:	04878793          	addi	a5,a5,72 # 800034b0 <BSS_END+0x18>
    80002470:	00f707b3          	add	a5,a4,a5
    80002474:	00078067          	jr	a5
    80002478:	00100793          	li	a5,1
    8000247c:	fef42423          	sw	a5,-24(s0)
    80002480:	3b80006f          	j	80002838 <_vsnprintf+0x444>
    80002484:	00100793          	li	a5,1
    80002488:	fef42423          	sw	a5,-24(s0)
    8000248c:	f9843783          	ld	a5,-104(s0)
    80002490:	02078263          	beqz	a5,800024b4 <_vsnprintf+0xc0>
    80002494:	fe043703          	ld	a4,-32(s0)
    80002498:	f9043783          	ld	a5,-112(s0)
    8000249c:	00f77c63          	bgeu	a4,a5,800024b4 <_vsnprintf+0xc0>
    800024a0:	f9843703          	ld	a4,-104(s0)
    800024a4:	fe043783          	ld	a5,-32(s0)
    800024a8:	00f707b3          	add	a5,a4,a5
    800024ac:	03000713          	li	a4,48
    800024b0:	00e78023          	sb	a4,0(a5)
    800024b4:	fe043783          	ld	a5,-32(s0)
    800024b8:	00178793          	addi	a5,a5,1
    800024bc:	fef43023          	sd	a5,-32(s0)
    800024c0:	f9843783          	ld	a5,-104(s0)
    800024c4:	02078263          	beqz	a5,800024e8 <_vsnprintf+0xf4>
    800024c8:	fe043703          	ld	a4,-32(s0)
    800024cc:	f9043783          	ld	a5,-112(s0)
    800024d0:	00f77c63          	bgeu	a4,a5,800024e8 <_vsnprintf+0xf4>
    800024d4:	f9843703          	ld	a4,-104(s0)
    800024d8:	fe043783          	ld	a5,-32(s0)
    800024dc:	00f707b3          	add	a5,a4,a5
    800024e0:	07800713          	li	a4,120
    800024e4:	00e78023          	sb	a4,0(a5)
    800024e8:	fe043783          	ld	a5,-32(s0)
    800024ec:	00178793          	addi	a5,a5,1
    800024f0:	fef43023          	sd	a5,-32(s0)
    800024f4:	f8043783          	ld	a5,-128(s0)
    800024f8:	00878713          	addi	a4,a5,8
    800024fc:	f8e43023          	sd	a4,-128(s0)
    80002500:	0007b783          	ld	a5,0(a5)
    80002504:	faf43423          	sd	a5,-88(s0)
    80002508:	fe842783          	lw	a5,-24(s0)
    8000250c:	0007879b          	sext.w	a5,a5
    80002510:	00078663          	beqz	a5,8000251c <_vsnprintf+0x128>
    80002514:	00f00793          	li	a5,15
    80002518:	0080006f          	j	80002520 <_vsnprintf+0x12c>
    8000251c:	00700793          	li	a5,7
    80002520:	faf42223          	sw	a5,-92(s0)
    80002524:	fa442783          	lw	a5,-92(s0)
    80002528:	fcf42e23          	sw	a5,-36(s0)
    8000252c:	0940006f          	j	800025c0 <_vsnprintf+0x1cc>
    80002530:	fdc42783          	lw	a5,-36(s0)
    80002534:	0027979b          	slliw	a5,a5,0x2
    80002538:	0007879b          	sext.w	a5,a5
    8000253c:	fa843703          	ld	a4,-88(s0)
    80002540:	40f757b3          	sra	a5,a4,a5
    80002544:	0007879b          	sext.w	a5,a5
    80002548:	00f7f793          	andi	a5,a5,15
    8000254c:	faf42023          	sw	a5,-96(s0)
    80002550:	f9843783          	ld	a5,-104(s0)
    80002554:	04078a63          	beqz	a5,800025a8 <_vsnprintf+0x1b4>
    80002558:	fe043703          	ld	a4,-32(s0)
    8000255c:	f9043783          	ld	a5,-112(s0)
    80002560:	04f77463          	bgeu	a4,a5,800025a8 <_vsnprintf+0x1b4>
    80002564:	fa042783          	lw	a5,-96(s0)
    80002568:	0007871b          	sext.w	a4,a5
    8000256c:	00900793          	li	a5,9
    80002570:	00e7cc63          	blt	a5,a4,80002588 <_vsnprintf+0x194>
    80002574:	fa042783          	lw	a5,-96(s0)
    80002578:	0ff7f793          	zext.b	a5,a5
    8000257c:	0307879b          	addiw	a5,a5,48
    80002580:	0ff7f793          	zext.b	a5,a5
    80002584:	0140006f          	j	80002598 <_vsnprintf+0x1a4>
    80002588:	fa042783          	lw	a5,-96(s0)
    8000258c:	0ff7f793          	zext.b	a5,a5
    80002590:	0577879b          	addiw	a5,a5,87
    80002594:	0ff7f793          	zext.b	a5,a5
    80002598:	f9843683          	ld	a3,-104(s0)
    8000259c:	fe043703          	ld	a4,-32(s0)
    800025a0:	00e68733          	add	a4,a3,a4
    800025a4:	00f70023          	sb	a5,0(a4)
    800025a8:	fe043783          	ld	a5,-32(s0)
    800025ac:	00178793          	addi	a5,a5,1
    800025b0:	fef43023          	sd	a5,-32(s0)
    800025b4:	fdc42783          	lw	a5,-36(s0)
    800025b8:	fff7879b          	addiw	a5,a5,-1
    800025bc:	fcf42e23          	sw	a5,-36(s0)
    800025c0:	fdc42783          	lw	a5,-36(s0)
    800025c4:	0007879b          	sext.w	a5,a5
    800025c8:	f607d4e3          	bgez	a5,80002530 <_vsnprintf+0x13c>
    800025cc:	fe042423          	sw	zero,-24(s0)
    800025d0:	fe042623          	sw	zero,-20(s0)
    800025d4:	2640006f          	j	80002838 <_vsnprintf+0x444>
    800025d8:	f8043783          	ld	a5,-128(s0)
    800025dc:	00878713          	addi	a4,a5,8
    800025e0:	f8e43023          	sd	a4,-128(s0)
    800025e4:	0007b783          	ld	a5,0(a5)
    800025e8:	fcf43823          	sd	a5,-48(s0)
    800025ec:	fd043783          	ld	a5,-48(s0)
    800025f0:	0407d263          	bgez	a5,80002634 <_vsnprintf+0x240>
    800025f4:	fd043783          	ld	a5,-48(s0)
    800025f8:	40f007b3          	neg	a5,a5
    800025fc:	fcf43823          	sd	a5,-48(s0)
    80002600:	f9843783          	ld	a5,-104(s0)
    80002604:	02078263          	beqz	a5,80002628 <_vsnprintf+0x234>
    80002608:	fe043703          	ld	a4,-32(s0)
    8000260c:	f9043783          	ld	a5,-112(s0)
    80002610:	00f77c63          	bgeu	a4,a5,80002628 <_vsnprintf+0x234>
    80002614:	f9843703          	ld	a4,-104(s0)
    80002618:	fe043783          	ld	a5,-32(s0)
    8000261c:	00f707b3          	add	a5,a4,a5
    80002620:	02d00713          	li	a4,45
    80002624:	00e78023          	sb	a4,0(a5)
    80002628:	fe043783          	ld	a5,-32(s0)
    8000262c:	00178793          	addi	a5,a5,1
    80002630:	fef43023          	sd	a5,-32(s0)
    80002634:	00100793          	li	a5,1
    80002638:	fcf43423          	sd	a5,-56(s0)
    8000263c:	fd043783          	ld	a5,-48(s0)
    80002640:	fcf43023          	sd	a5,-64(s0)
    80002644:	0100006f          	j	80002654 <_vsnprintf+0x260>
    80002648:	fc843783          	ld	a5,-56(s0)
    8000264c:	00178793          	addi	a5,a5,1
    80002650:	fcf43423          	sd	a5,-56(s0)
    80002654:	fc043703          	ld	a4,-64(s0)
    80002658:	00a00793          	li	a5,10
    8000265c:	02f747b3          	div	a5,a4,a5
    80002660:	fcf43023          	sd	a5,-64(s0)
    80002664:	fc043783          	ld	a5,-64(s0)
    80002668:	fe0790e3          	bnez	a5,80002648 <_vsnprintf+0x254>
    8000266c:	fc843783          	ld	a5,-56(s0)
    80002670:	0007879b          	sext.w	a5,a5
    80002674:	fff7879b          	addiw	a5,a5,-1
    80002678:	0007879b          	sext.w	a5,a5
    8000267c:	faf42e23          	sw	a5,-68(s0)
    80002680:	06c0006f          	j	800026ec <_vsnprintf+0x2f8>
    80002684:	f9843783          	ld	a5,-104(s0)
    80002688:	04078463          	beqz	a5,800026d0 <_vsnprintf+0x2dc>
    8000268c:	fbc42703          	lw	a4,-68(s0)
    80002690:	fe043783          	ld	a5,-32(s0)
    80002694:	00f707b3          	add	a5,a4,a5
    80002698:	f9043703          	ld	a4,-112(s0)
    8000269c:	02e7fa63          	bgeu	a5,a4,800026d0 <_vsnprintf+0x2dc>
    800026a0:	fd043703          	ld	a4,-48(s0)
    800026a4:	00a00793          	li	a5,10
    800026a8:	02f767b3          	rem	a5,a4,a5
    800026ac:	0ff7f713          	zext.b	a4,a5
    800026b0:	fbc42683          	lw	a3,-68(s0)
    800026b4:	fe043783          	ld	a5,-32(s0)
    800026b8:	00f687b3          	add	a5,a3,a5
    800026bc:	f9843683          	ld	a3,-104(s0)
    800026c0:	00f687b3          	add	a5,a3,a5
    800026c4:	0307071b          	addiw	a4,a4,48
    800026c8:	0ff77713          	zext.b	a4,a4
    800026cc:	00e78023          	sb	a4,0(a5)
    800026d0:	fd043703          	ld	a4,-48(s0)
    800026d4:	00a00793          	li	a5,10
    800026d8:	02f747b3          	div	a5,a4,a5
    800026dc:	fcf43823          	sd	a5,-48(s0)
    800026e0:	fbc42783          	lw	a5,-68(s0)
    800026e4:	fff7879b          	addiw	a5,a5,-1
    800026e8:	faf42e23          	sw	a5,-68(s0)
    800026ec:	fbc42783          	lw	a5,-68(s0)
    800026f0:	0007879b          	sext.w	a5,a5
    800026f4:	f807d8e3          	bgez	a5,80002684 <_vsnprintf+0x290>
    800026f8:	fc843783          	ld	a5,-56(s0)
    800026fc:	fe043703          	ld	a4,-32(s0)
    80002700:	00f707b3          	add	a5,a4,a5
    80002704:	fef43023          	sd	a5,-32(s0)
    80002708:	fe042423          	sw	zero,-24(s0)
    8000270c:	fe042623          	sw	zero,-20(s0)
    80002710:	1280006f          	j	80002838 <_vsnprintf+0x444>
    80002714:	f8043783          	ld	a5,-128(s0)
    80002718:	00878713          	addi	a4,a5,8
    8000271c:	f8e43023          	sd	a4,-128(s0)
    80002720:	0007b783          	ld	a5,0(a5)
    80002724:	faf43823          	sd	a5,-80(s0)
    80002728:	0480006f          	j	80002770 <_vsnprintf+0x37c>
    8000272c:	f9843783          	ld	a5,-104(s0)
    80002730:	02078463          	beqz	a5,80002758 <_vsnprintf+0x364>
    80002734:	fe043703          	ld	a4,-32(s0)
    80002738:	f9043783          	ld	a5,-112(s0)
    8000273c:	00f77e63          	bgeu	a4,a5,80002758 <_vsnprintf+0x364>
    80002740:	f9843703          	ld	a4,-104(s0)
    80002744:	fe043783          	ld	a5,-32(s0)
    80002748:	00f707b3          	add	a5,a4,a5
    8000274c:	fb043703          	ld	a4,-80(s0)
    80002750:	00074703          	lbu	a4,0(a4)
    80002754:	00e78023          	sb	a4,0(a5)
    80002758:	fe043783          	ld	a5,-32(s0)
    8000275c:	00178793          	addi	a5,a5,1
    80002760:	fef43023          	sd	a5,-32(s0)
    80002764:	fb043783          	ld	a5,-80(s0)
    80002768:	00178793          	addi	a5,a5,1
    8000276c:	faf43823          	sd	a5,-80(s0)
    80002770:	fb043783          	ld	a5,-80(s0)
    80002774:	0007c783          	lbu	a5,0(a5)
    80002778:	fa079ae3          	bnez	a5,8000272c <_vsnprintf+0x338>
    8000277c:	fe042423          	sw	zero,-24(s0)
    80002780:	fe042623          	sw	zero,-20(s0)
    80002784:	0b40006f          	j	80002838 <_vsnprintf+0x444>
    80002788:	f9843783          	ld	a5,-104(s0)
    8000278c:	02078a63          	beqz	a5,800027c0 <_vsnprintf+0x3cc>
    80002790:	fe043703          	ld	a4,-32(s0)
    80002794:	f9043783          	ld	a5,-112(s0)
    80002798:	02f77463          	bgeu	a4,a5,800027c0 <_vsnprintf+0x3cc>
    8000279c:	f8043783          	ld	a5,-128(s0)
    800027a0:	00878713          	addi	a4,a5,8
    800027a4:	f8e43023          	sd	a4,-128(s0)
    800027a8:	0007b683          	ld	a3,0(a5)
    800027ac:	f9843703          	ld	a4,-104(s0)
    800027b0:	fe043783          	ld	a5,-32(s0)
    800027b4:	00f707b3          	add	a5,a4,a5
    800027b8:	0ff6f713          	zext.b	a4,a3
    800027bc:	00e78023          	sb	a4,0(a5)
    800027c0:	fe043783          	ld	a5,-32(s0)
    800027c4:	00178793          	addi	a5,a5,1
    800027c8:	fef43023          	sd	a5,-32(s0)
    800027cc:	fe042423          	sw	zero,-24(s0)
    800027d0:	fe042623          	sw	zero,-20(s0)
    800027d4:	0640006f          	j	80002838 <_vsnprintf+0x444>
    800027d8:	f8843783          	ld	a5,-120(s0)
    800027dc:	0007c783          	lbu	a5,0(a5)
    800027e0:	00078713          	mv	a4,a5
    800027e4:	02500793          	li	a5,37
    800027e8:	00f71863          	bne	a4,a5,800027f8 <_vsnprintf+0x404>
    800027ec:	00100793          	li	a5,1
    800027f0:	fef42623          	sw	a5,-20(s0)
    800027f4:	0440006f          	j	80002838 <_vsnprintf+0x444>
    800027f8:	f9843783          	ld	a5,-104(s0)
    800027fc:	02078463          	beqz	a5,80002824 <_vsnprintf+0x430>
    80002800:	fe043703          	ld	a4,-32(s0)
    80002804:	f9043783          	ld	a5,-112(s0)
    80002808:	00f77e63          	bgeu	a4,a5,80002824 <_vsnprintf+0x430>
    8000280c:	f9843703          	ld	a4,-104(s0)
    80002810:	fe043783          	ld	a5,-32(s0)
    80002814:	00f707b3          	add	a5,a4,a5
    80002818:	f8843703          	ld	a4,-120(s0)
    8000281c:	00074703          	lbu	a4,0(a4)
    80002820:	00e78023          	sb	a4,0(a5)
    80002824:	fe043783          	ld	a5,-32(s0)
    80002828:	00178793          	addi	a5,a5,1
    8000282c:	fef43023          	sd	a5,-32(s0)
    80002830:	0080006f          	j	80002838 <_vsnprintf+0x444>
    80002834:	00000013          	nop
    80002838:	f8843783          	ld	a5,-120(s0)
    8000283c:	00178793          	addi	a5,a5,1
    80002840:	f8f43423          	sd	a5,-120(s0)
    80002844:	f8843783          	ld	a5,-120(s0)
    80002848:	0007c783          	lbu	a5,0(a5)
    8000284c:	bc079ae3          	bnez	a5,80002420 <_vsnprintf+0x2c>
    80002850:	f9843783          	ld	a5,-104(s0)
    80002854:	02078263          	beqz	a5,80002878 <_vsnprintf+0x484>
    80002858:	fe043703          	ld	a4,-32(s0)
    8000285c:	f9043783          	ld	a5,-112(s0)
    80002860:	00f77c63          	bgeu	a4,a5,80002878 <_vsnprintf+0x484>
    80002864:	f9843703          	ld	a4,-104(s0)
    80002868:	fe043783          	ld	a5,-32(s0)
    8000286c:	00f707b3          	add	a5,a4,a5
    80002870:	00078023          	sb	zero,0(a5)
    80002874:	0280006f          	j	8000289c <_vsnprintf+0x4a8>
    80002878:	f9843783          	ld	a5,-104(s0)
    8000287c:	02078063          	beqz	a5,8000289c <_vsnprintf+0x4a8>
    80002880:	f9043783          	ld	a5,-112(s0)
    80002884:	00078c63          	beqz	a5,8000289c <_vsnprintf+0x4a8>
    80002888:	f9043783          	ld	a5,-112(s0)
    8000288c:	fff78793          	addi	a5,a5,-1
    80002890:	f9843703          	ld	a4,-104(s0)
    80002894:	00f707b3          	add	a5,a4,a5
    80002898:	00078023          	sb	zero,0(a5)
    8000289c:	fe043783          	ld	a5,-32(s0)
    800028a0:	0007879b          	sext.w	a5,a5
    800028a4:	00078513          	mv	a0,a5
    800028a8:	07813403          	ld	s0,120(sp)
    800028ac:	08010113          	addi	sp,sp,128
    800028b0:	00008067          	ret

00000000800028b4 <_vprintf>:
    800028b4:	fd010113          	addi	sp,sp,-48
    800028b8:	02113423          	sd	ra,40(sp)
    800028bc:	02813023          	sd	s0,32(sp)
    800028c0:	03010413          	addi	s0,sp,48
    800028c4:	fca43c23          	sd	a0,-40(s0)
    800028c8:	fcb43823          	sd	a1,-48(s0)
    800028cc:	fd043683          	ld	a3,-48(s0)
    800028d0:	fd843603          	ld	a2,-40(s0)
    800028d4:	fff00593          	li	a1,-1
    800028d8:	00000513          	li	a0,0
    800028dc:	b19ff0ef          	jal	ra,800023f4 <_vsnprintf>
    800028e0:	00050793          	mv	a5,a0
    800028e4:	fef42623          	sw	a5,-20(s0)
    800028e8:	fec42783          	lw	a5,-20(s0)
    800028ec:	0017879b          	addiw	a5,a5,1
    800028f0:	0007879b          	sext.w	a5,a5
    800028f4:	0007879b          	sext.w	a5,a5
    800028f8:	00078713          	mv	a4,a5
    800028fc:	3e700793          	li	a5,999
    80002900:	00e7fc63          	bgeu	a5,a4,80002918 <_vprintf+0x64>
    80002904:	00001517          	auipc	a0,0x1
    80002908:	c0450513          	addi	a0,a0,-1020 # 80003508 <BSS_END+0x70>
    8000290c:	a91ff0ef          	jal	ra,8000239c <uart_puts>
    80002910:	00000013          	nop
    80002914:	ffdff06f          	j	80002910 <_vprintf+0x5c>
    80002918:	fec42783          	lw	a5,-20(s0)
    8000291c:	0017879b          	addiw	a5,a5,1
    80002920:	0007879b          	sext.w	a5,a5
    80002924:	fd043683          	ld	a3,-48(s0)
    80002928:	fd843603          	ld	a2,-40(s0)
    8000292c:	00078593          	mv	a1,a5
    80002930:	00001517          	auipc	a0,0x1
    80002934:	6d850513          	addi	a0,a0,1752 # 80004008 <out_buf>
    80002938:	abdff0ef          	jal	ra,800023f4 <_vsnprintf>
    8000293c:	00001517          	auipc	a0,0x1
    80002940:	6cc50513          	addi	a0,a0,1740 # 80004008 <out_buf>
    80002944:	a59ff0ef          	jal	ra,8000239c <uart_puts>
    80002948:	fec42783          	lw	a5,-20(s0)
    8000294c:	00078513          	mv	a0,a5
    80002950:	02813083          	ld	ra,40(sp)
    80002954:	02013403          	ld	s0,32(sp)
    80002958:	03010113          	addi	sp,sp,48
    8000295c:	00008067          	ret

0000000080002960 <printf>:
    80002960:	f9010113          	addi	sp,sp,-112
    80002964:	02113423          	sd	ra,40(sp)
    80002968:	02813023          	sd	s0,32(sp)
    8000296c:	03010413          	addi	s0,sp,48
    80002970:	fca43c23          	sd	a0,-40(s0)
    80002974:	00b43423          	sd	a1,8(s0)
    80002978:	00c43823          	sd	a2,16(s0)
    8000297c:	00d43c23          	sd	a3,24(s0)
    80002980:	02e43023          	sd	a4,32(s0)
    80002984:	02f43423          	sd	a5,40(s0)
    80002988:	03043823          	sd	a6,48(s0)
    8000298c:	03143c23          	sd	a7,56(s0)
    80002990:	fe042623          	sw	zero,-20(s0)
    80002994:	04040793          	addi	a5,s0,64
    80002998:	fcf43823          	sd	a5,-48(s0)
    8000299c:	fd043783          	ld	a5,-48(s0)
    800029a0:	fc878793          	addi	a5,a5,-56
    800029a4:	fef43023          	sd	a5,-32(s0)
    800029a8:	fe043783          	ld	a5,-32(s0)
    800029ac:	00078593          	mv	a1,a5
    800029b0:	fd843503          	ld	a0,-40(s0)
    800029b4:	f01ff0ef          	jal	ra,800028b4 <_vprintf>
    800029b8:	00050793          	mv	a5,a0
    800029bc:	fef42623          	sw	a5,-20(s0)
    800029c0:	fec42783          	lw	a5,-20(s0)
    800029c4:	00078513          	mv	a0,a5
    800029c8:	02813083          	ld	ra,40(sp)
    800029cc:	02013403          	ld	s0,32(sp)
    800029d0:	07010113          	addi	sp,sp,112
    800029d4:	00008067          	ret

00000000800029d8 <panic>:
    800029d8:	fe010113          	addi	sp,sp,-32
    800029dc:	00113c23          	sd	ra,24(sp)
    800029e0:	00813823          	sd	s0,16(sp)
    800029e4:	02010413          	addi	s0,sp,32
    800029e8:	fea43423          	sd	a0,-24(s0)
    800029ec:	00001517          	auipc	a0,0x1
    800029f0:	b4450513          	addi	a0,a0,-1212 # 80003530 <BSS_END+0x98>
    800029f4:	f6dff0ef          	jal	ra,80002960 <printf>
    800029f8:	fe843503          	ld	a0,-24(s0)
    800029fc:	f65ff0ef          	jal	ra,80002960 <printf>
    80002a00:	00001517          	auipc	a0,0x1
    80002a04:	b3850513          	addi	a0,a0,-1224 # 80003538 <BSS_END+0xa0>
    80002a08:	f59ff0ef          	jal	ra,80002960 <printf>
    80002a0c:	00000013          	nop
    80002a10:	ffdff06f          	j	80002a0c <panic+0x34>

0000000080002a14 <_clear>:
    80002a14:	fe010113          	addi	sp,sp,-32
    80002a18:	00813c23          	sd	s0,24(sp)
    80002a1c:	02010413          	addi	s0,sp,32
    80002a20:	fea43423          	sd	a0,-24(s0)
    80002a24:	fe843783          	ld	a5,-24(s0)
    80002a28:	00078023          	sb	zero,0(a5)
    80002a2c:	00000013          	nop
    80002a30:	01813403          	ld	s0,24(sp)
    80002a34:	02010113          	addi	sp,sp,32
    80002a38:	00008067          	ret

0000000080002a3c <_is_free>:
    80002a3c:	fe010113          	addi	sp,sp,-32
    80002a40:	00813c23          	sd	s0,24(sp)
    80002a44:	02010413          	addi	s0,sp,32
    80002a48:	fea43423          	sd	a0,-24(s0)
    80002a4c:	fe843783          	ld	a5,-24(s0)
    80002a50:	0007c783          	lbu	a5,0(a5)
    80002a54:	0007879b          	sext.w	a5,a5
    80002a58:	0017f793          	andi	a5,a5,1
    80002a5c:	0007879b          	sext.w	a5,a5
    80002a60:	00078663          	beqz	a5,80002a6c <_is_free+0x30>
    80002a64:	00000793          	li	a5,0
    80002a68:	0080006f          	j	80002a70 <_is_free+0x34>
    80002a6c:	00100793          	li	a5,1
    80002a70:	00078513          	mv	a0,a5
    80002a74:	01813403          	ld	s0,24(sp)
    80002a78:	02010113          	addi	sp,sp,32
    80002a7c:	00008067          	ret

0000000080002a80 <_set_flag>:
    80002a80:	fe010113          	addi	sp,sp,-32
    80002a84:	00813c23          	sd	s0,24(sp)
    80002a88:	02010413          	addi	s0,sp,32
    80002a8c:	fea43423          	sd	a0,-24(s0)
    80002a90:	00058793          	mv	a5,a1
    80002a94:	fef403a3          	sb	a5,-25(s0)
    80002a98:	fe843783          	ld	a5,-24(s0)
    80002a9c:	0007c783          	lbu	a5,0(a5)
    80002aa0:	fe744703          	lbu	a4,-25(s0)
    80002aa4:	00e7e7b3          	or	a5,a5,a4
    80002aa8:	0ff7f713          	zext.b	a4,a5
    80002aac:	fe843783          	ld	a5,-24(s0)
    80002ab0:	00e78023          	sb	a4,0(a5)
    80002ab4:	00000013          	nop
    80002ab8:	01813403          	ld	s0,24(sp)
    80002abc:	02010113          	addi	sp,sp,32
    80002ac0:	00008067          	ret

0000000080002ac4 <_is_last>:
    80002ac4:	fe010113          	addi	sp,sp,-32
    80002ac8:	00813c23          	sd	s0,24(sp)
    80002acc:	02010413          	addi	s0,sp,32
    80002ad0:	fea43423          	sd	a0,-24(s0)
    80002ad4:	fe843783          	ld	a5,-24(s0)
    80002ad8:	0007c783          	lbu	a5,0(a5)
    80002adc:	0007879b          	sext.w	a5,a5
    80002ae0:	0027f793          	andi	a5,a5,2
    80002ae4:	0007879b          	sext.w	a5,a5
    80002ae8:	00078663          	beqz	a5,80002af4 <_is_last+0x30>
    80002aec:	00100793          	li	a5,1
    80002af0:	0080006f          	j	80002af8 <_is_last+0x34>
    80002af4:	00000793          	li	a5,0
    80002af8:	00078513          	mv	a0,a5
    80002afc:	01813403          	ld	s0,24(sp)
    80002b00:	02010113          	addi	sp,sp,32
    80002b04:	00008067          	ret

0000000080002b08 <_align_page>:
    80002b08:	fd010113          	addi	sp,sp,-48
    80002b0c:	02813423          	sd	s0,40(sp)
    80002b10:	03010413          	addi	s0,sp,48
    80002b14:	fca43c23          	sd	a0,-40(s0)
    80002b18:	000017b7          	lui	a5,0x1
    80002b1c:	fff78793          	addi	a5,a5,-1 # fff <STACK_SIZE+0xbff>
    80002b20:	fef43423          	sd	a5,-24(s0)
    80002b24:	fd843703          	ld	a4,-40(s0)
    80002b28:	fe843783          	ld	a5,-24(s0)
    80002b2c:	00f70733          	add	a4,a4,a5
    80002b30:	fe843783          	ld	a5,-24(s0)
    80002b34:	fff7c793          	not	a5,a5
    80002b38:	00f777b3          	and	a5,a4,a5
    80002b3c:	00078513          	mv	a0,a5
    80002b40:	02813403          	ld	s0,40(sp)
    80002b44:	03010113          	addi	sp,sp,48
    80002b48:	00008067          	ret

0000000080002b4c <page_init>:
    80002b4c:	fe010113          	addi	sp,sp,-32
    80002b50:	00113c23          	sd	ra,24(sp)
    80002b54:	00813823          	sd	s0,16(sp)
    80002b58:	02010413          	addi	s0,sp,32
    80002b5c:	00001797          	auipc	a5,0x1
    80002b60:	8fc78793          	addi	a5,a5,-1796 # 80003458 <HEAP_SIZE>
    80002b64:	0007b783          	ld	a5,0(a5)
    80002b68:	00c7d793          	srli	a5,a5,0xc
    80002b6c:	ff878713          	addi	a4,a5,-8
    80002b70:	00002797          	auipc	a5,0x2
    80002b74:	89078793          	addi	a5,a5,-1904 # 80004400 <_num_pages>
    80002b78:	00e7b023          	sd	a4,0(a5)
    80002b7c:	00001797          	auipc	a5,0x1
    80002b80:	8d478793          	addi	a5,a5,-1836 # 80003450 <_text_end>
    80002b84:	0007b703          	ld	a4,0(a5)
    80002b88:	00001797          	auipc	a5,0x1
    80002b8c:	8d078793          	addi	a5,a5,-1840 # 80003458 <HEAP_SIZE>
    80002b90:	0007b603          	ld	a2,0(a5)
    80002b94:	00002797          	auipc	a5,0x2
    80002b98:	86c78793          	addi	a5,a5,-1940 # 80004400 <_num_pages>
    80002b9c:	0007b783          	ld	a5,0(a5)
    80002ba0:	00078693          	mv	a3,a5
    80002ba4:	00070593          	mv	a1,a4
    80002ba8:	00001517          	auipc	a0,0x1
    80002bac:	99850513          	addi	a0,a0,-1640 # 80003540 <BSS_END+0xa8>
    80002bb0:	db1ff0ef          	jal	ra,80002960 <printf>
    80002bb4:	00001797          	auipc	a5,0x1
    80002bb8:	89c78793          	addi	a5,a5,-1892 # 80003450 <_text_end>
    80002bbc:	0007b783          	ld	a5,0(a5)
    80002bc0:	fef43423          	sd	a5,-24(s0)
    80002bc4:	fe042223          	sw	zero,-28(s0)
    80002bc8:	0240006f          	j	80002bec <page_init+0xa0>
    80002bcc:	fe843503          	ld	a0,-24(s0)
    80002bd0:	e45ff0ef          	jal	ra,80002a14 <_clear>
    80002bd4:	fe843783          	ld	a5,-24(s0)
    80002bd8:	00178793          	addi	a5,a5,1
    80002bdc:	fef43423          	sd	a5,-24(s0)
    80002be0:	fe442783          	lw	a5,-28(s0)
    80002be4:	0017879b          	addiw	a5,a5,1
    80002be8:	fef42223          	sw	a5,-28(s0)
    80002bec:	fe442703          	lw	a4,-28(s0)
    80002bf0:	00002797          	auipc	a5,0x2
    80002bf4:	81078793          	addi	a5,a5,-2032 # 80004400 <_num_pages>
    80002bf8:	0007b783          	ld	a5,0(a5)
    80002bfc:	fcf768e3          	bltu	a4,a5,80002bcc <page_init+0x80>
    80002c00:	00001797          	auipc	a5,0x1
    80002c04:	85078793          	addi	a5,a5,-1968 # 80003450 <_text_end>
    80002c08:	0007b703          	ld	a4,0(a5)
    80002c0c:	000087b7          	lui	a5,0x8
    80002c10:	00f707b3          	add	a5,a4,a5
    80002c14:	00078513          	mv	a0,a5
    80002c18:	ef1ff0ef          	jal	ra,80002b08 <_align_page>
    80002c1c:	00050713          	mv	a4,a0
    80002c20:	00001797          	auipc	a5,0x1
    80002c24:	7d078793          	addi	a5,a5,2000 # 800043f0 <_alloc_start>
    80002c28:	00e7b023          	sd	a4,0(a5)
    80002c2c:	00001797          	auipc	a5,0x1
    80002c30:	7d478793          	addi	a5,a5,2004 # 80004400 <_num_pages>
    80002c34:	0007b783          	ld	a5,0(a5)
    80002c38:	00c79713          	slli	a4,a5,0xc
    80002c3c:	00001797          	auipc	a5,0x1
    80002c40:	7b478793          	addi	a5,a5,1972 # 800043f0 <_alloc_start>
    80002c44:	0007b783          	ld	a5,0(a5)
    80002c48:	00f70733          	add	a4,a4,a5
    80002c4c:	00001797          	auipc	a5,0x1
    80002c50:	7ac78793          	addi	a5,a5,1964 # 800043f8 <_alloc_end>
    80002c54:	00e7b023          	sd	a4,0(a5)
    80002c58:	00001797          	auipc	a5,0x1
    80002c5c:	80878793          	addi	a5,a5,-2040 # 80003460 <TEXT_START>
    80002c60:	0007b703          	ld	a4,0(a5)
    80002c64:	00001797          	auipc	a5,0x1
    80002c68:	80478793          	addi	a5,a5,-2044 # 80003468 <TEXT_END>
    80002c6c:	0007b783          	ld	a5,0(a5)
    80002c70:	00078613          	mv	a2,a5
    80002c74:	00070593          	mv	a1,a4
    80002c78:	00001517          	auipc	a0,0x1
    80002c7c:	90050513          	addi	a0,a0,-1792 # 80003578 <BSS_END+0xe0>
    80002c80:	ce1ff0ef          	jal	ra,80002960 <printf>
    80002c84:	00000797          	auipc	a5,0x0
    80002c88:	7fc78793          	addi	a5,a5,2044 # 80003480 <RODATA_START>
    80002c8c:	0007b703          	ld	a4,0(a5)
    80002c90:	00000797          	auipc	a5,0x0
    80002c94:	7f878793          	addi	a5,a5,2040 # 80003488 <RODATA_END>
    80002c98:	0007b783          	ld	a5,0(a5)
    80002c9c:	00078613          	mv	a2,a5
    80002ca0:	00070593          	mv	a1,a4
    80002ca4:	00001517          	auipc	a0,0x1
    80002ca8:	8ec50513          	addi	a0,a0,-1812 # 80003590 <BSS_END+0xf8>
    80002cac:	cb5ff0ef          	jal	ra,80002960 <printf>
    80002cb0:	00000797          	auipc	a5,0x0
    80002cb4:	7c078793          	addi	a5,a5,1984 # 80003470 <DATA_START>
    80002cb8:	0007b703          	ld	a4,0(a5)
    80002cbc:	00000797          	auipc	a5,0x0
    80002cc0:	7bc78793          	addi	a5,a5,1980 # 80003478 <DATA_END>
    80002cc4:	0007b783          	ld	a5,0(a5)
    80002cc8:	00078613          	mv	a2,a5
    80002ccc:	00070593          	mv	a1,a4
    80002cd0:	00001517          	auipc	a0,0x1
    80002cd4:	8d850513          	addi	a0,a0,-1832 # 800035a8 <BSS_END+0x110>
    80002cd8:	c89ff0ef          	jal	ra,80002960 <printf>
    80002cdc:	00000797          	auipc	a5,0x0
    80002ce0:	7b478793          	addi	a5,a5,1972 # 80003490 <BSS_START>
    80002ce4:	0007b703          	ld	a4,0(a5)
    80002ce8:	00000797          	auipc	a5,0x0
    80002cec:	7b078793          	addi	a5,a5,1968 # 80003498 <BSS_END>
    80002cf0:	0007b783          	ld	a5,0(a5)
    80002cf4:	00078613          	mv	a2,a5
    80002cf8:	00070593          	mv	a1,a4
    80002cfc:	00001517          	auipc	a0,0x1
    80002d00:	8c450513          	addi	a0,a0,-1852 # 800035c0 <BSS_END+0x128>
    80002d04:	c5dff0ef          	jal	ra,80002960 <printf>
    80002d08:	00001797          	auipc	a5,0x1
    80002d0c:	6e878793          	addi	a5,a5,1768 # 800043f0 <_alloc_start>
    80002d10:	0007b703          	ld	a4,0(a5)
    80002d14:	00001797          	auipc	a5,0x1
    80002d18:	6e478793          	addi	a5,a5,1764 # 800043f8 <_alloc_end>
    80002d1c:	0007b783          	ld	a5,0(a5)
    80002d20:	00078613          	mv	a2,a5
    80002d24:	00070593          	mv	a1,a4
    80002d28:	00001517          	auipc	a0,0x1
    80002d2c:	8b050513          	addi	a0,a0,-1872 # 800035d8 <BSS_END+0x140>
    80002d30:	c31ff0ef          	jal	ra,80002960 <printf>
    80002d34:	00000013          	nop
    80002d38:	01813083          	ld	ra,24(sp)
    80002d3c:	01013403          	ld	s0,16(sp)
    80002d40:	02010113          	addi	sp,sp,32
    80002d44:	00008067          	ret

0000000080002d48 <page_alloc>:
    80002d48:	fa010113          	addi	sp,sp,-96
    80002d4c:	04113c23          	sd	ra,88(sp)
    80002d50:	04813823          	sd	s0,80(sp)
    80002d54:	06010413          	addi	s0,sp,96
    80002d58:	00050793          	mv	a5,a0
    80002d5c:	faf42623          	sw	a5,-84(s0)
    80002d60:	fe042623          	sw	zero,-20(s0)
    80002d64:	00000797          	auipc	a5,0x0
    80002d68:	6ec78793          	addi	a5,a5,1772 # 80003450 <_text_end>
    80002d6c:	0007b783          	ld	a5,0(a5)
    80002d70:	fef43023          	sd	a5,-32(s0)
    80002d74:	fc042e23          	sw	zero,-36(s0)
    80002d78:	1380006f          	j	80002eb0 <page_alloc+0x168>
    80002d7c:	fe043503          	ld	a0,-32(s0)
    80002d80:	cbdff0ef          	jal	ra,80002a3c <_is_free>
    80002d84:	00050793          	mv	a5,a0
    80002d88:	10078863          	beqz	a5,80002e98 <page_alloc+0x150>
    80002d8c:	00100793          	li	a5,1
    80002d90:	fef42623          	sw	a5,-20(s0)
    80002d94:	fe043783          	ld	a5,-32(s0)
    80002d98:	fcf43823          	sd	a5,-48(s0)
    80002d9c:	fdc42783          	lw	a5,-36(s0)
    80002da0:	fcf42623          	sw	a5,-52(s0)
    80002da4:	0340006f          	j	80002dd8 <page_alloc+0x90>
    80002da8:	fd043503          	ld	a0,-48(s0)
    80002dac:	c91ff0ef          	jal	ra,80002a3c <_is_free>
    80002db0:	00050793          	mv	a5,a0
    80002db4:	00079663          	bnez	a5,80002dc0 <page_alloc+0x78>
    80002db8:	fe042623          	sw	zero,-20(s0)
    80002dbc:	03c0006f          	j	80002df8 <page_alloc+0xb0>
    80002dc0:	fd043783          	ld	a5,-48(s0)
    80002dc4:	00178793          	addi	a5,a5,1
    80002dc8:	fcf43823          	sd	a5,-48(s0)
    80002dcc:	fcc42783          	lw	a5,-52(s0)
    80002dd0:	0017879b          	addiw	a5,a5,1
    80002dd4:	fcf42623          	sw	a5,-52(s0)
    80002dd8:	fdc42783          	lw	a5,-36(s0)
    80002ddc:	00078713          	mv	a4,a5
    80002de0:	fac42783          	lw	a5,-84(s0)
    80002de4:	00f707bb          	addw	a5,a4,a5
    80002de8:	0007871b          	sext.w	a4,a5
    80002dec:	fcc42783          	lw	a5,-52(s0)
    80002df0:	0007879b          	sext.w	a5,a5
    80002df4:	fae7cae3          	blt	a5,a4,80002da8 <page_alloc+0x60>
    80002df8:	fec42783          	lw	a5,-20(s0)
    80002dfc:	0007879b          	sext.w	a5,a5
    80002e00:	08078c63          	beqz	a5,80002e98 <page_alloc+0x150>
    80002e04:	fe043783          	ld	a5,-32(s0)
    80002e08:	fcf43023          	sd	a5,-64(s0)
    80002e0c:	fdc42783          	lw	a5,-36(s0)
    80002e10:	faf42e23          	sw	a5,-68(s0)
    80002e14:	0280006f          	j	80002e3c <page_alloc+0xf4>
    80002e18:	00100593          	li	a1,1
    80002e1c:	fc043503          	ld	a0,-64(s0)
    80002e20:	c61ff0ef          	jal	ra,80002a80 <_set_flag>
    80002e24:	fc043783          	ld	a5,-64(s0)
    80002e28:	00178793          	addi	a5,a5,1
    80002e2c:	fcf43023          	sd	a5,-64(s0)
    80002e30:	fbc42783          	lw	a5,-68(s0)
    80002e34:	0017879b          	addiw	a5,a5,1
    80002e38:	faf42e23          	sw	a5,-68(s0)
    80002e3c:	fdc42783          	lw	a5,-36(s0)
    80002e40:	00078713          	mv	a4,a5
    80002e44:	fac42783          	lw	a5,-84(s0)
    80002e48:	00f707bb          	addw	a5,a4,a5
    80002e4c:	0007871b          	sext.w	a4,a5
    80002e50:	fbc42783          	lw	a5,-68(s0)
    80002e54:	0007879b          	sext.w	a5,a5
    80002e58:	fce7c0e3          	blt	a5,a4,80002e18 <page_alloc+0xd0>
    80002e5c:	fc043783          	ld	a5,-64(s0)
    80002e60:	fff78793          	addi	a5,a5,-1
    80002e64:	fcf43023          	sd	a5,-64(s0)
    80002e68:	00200593          	li	a1,2
    80002e6c:	fc043503          	ld	a0,-64(s0)
    80002e70:	c11ff0ef          	jal	ra,80002a80 <_set_flag>
    80002e74:	fdc42783          	lw	a5,-36(s0)
    80002e78:	00c7979b          	slliw	a5,a5,0xc
    80002e7c:	0007879b          	sext.w	a5,a5
    80002e80:	00078713          	mv	a4,a5
    80002e84:	00001797          	auipc	a5,0x1
    80002e88:	56c78793          	addi	a5,a5,1388 # 800043f0 <_alloc_start>
    80002e8c:	0007b783          	ld	a5,0(a5)
    80002e90:	00f707b3          	add	a5,a4,a5
    80002e94:	03c0006f          	j	80002ed0 <page_alloc+0x188>
    80002e98:	fe043783          	ld	a5,-32(s0)
    80002e9c:	00178793          	addi	a5,a5,1
    80002ea0:	fef43023          	sd	a5,-32(s0)
    80002ea4:	fdc42783          	lw	a5,-36(s0)
    80002ea8:	0017879b          	addiw	a5,a5,1
    80002eac:	fcf42e23          	sw	a5,-36(s0)
    80002eb0:	fdc42703          	lw	a4,-36(s0)
    80002eb4:	00001797          	auipc	a5,0x1
    80002eb8:	54c78793          	addi	a5,a5,1356 # 80004400 <_num_pages>
    80002ebc:	0007b683          	ld	a3,0(a5)
    80002ec0:	fac42783          	lw	a5,-84(s0)
    80002ec4:	40f687b3          	sub	a5,a3,a5
    80002ec8:	eae7fae3          	bgeu	a5,a4,80002d7c <page_alloc+0x34>
    80002ecc:	00000793          	li	a5,0
    80002ed0:	00078513          	mv	a0,a5
    80002ed4:	05813083          	ld	ra,88(sp)
    80002ed8:	05013403          	ld	s0,80(sp)
    80002edc:	06010113          	addi	sp,sp,96
    80002ee0:	00008067          	ret

0000000080002ee4 <page_free>:
    80002ee4:	fd010113          	addi	sp,sp,-48
    80002ee8:	02113423          	sd	ra,40(sp)
    80002eec:	02813023          	sd	s0,32(sp)
    80002ef0:	03010413          	addi	s0,sp,48
    80002ef4:	fca43c23          	sd	a0,-40(s0)
    80002ef8:	fd843783          	ld	a5,-40(s0)
    80002efc:	08078a63          	beqz	a5,80002f90 <page_free+0xac>
    80002f00:	fd843703          	ld	a4,-40(s0)
    80002f04:	00001797          	auipc	a5,0x1
    80002f08:	4f478793          	addi	a5,a5,1268 # 800043f8 <_alloc_end>
    80002f0c:	0007b783          	ld	a5,0(a5)
    80002f10:	08f77063          	bgeu	a4,a5,80002f90 <page_free+0xac>
    80002f14:	00000797          	auipc	a5,0x0
    80002f18:	53c78793          	addi	a5,a5,1340 # 80003450 <_text_end>
    80002f1c:	0007b783          	ld	a5,0(a5)
    80002f20:	fef43423          	sd	a5,-24(s0)
    80002f24:	fd843703          	ld	a4,-40(s0)
    80002f28:	00001797          	auipc	a5,0x1
    80002f2c:	4c878793          	addi	a5,a5,1224 # 800043f0 <_alloc_start>
    80002f30:	0007b783          	ld	a5,0(a5)
    80002f34:	40f707b3          	sub	a5,a4,a5
    80002f38:	00c7d793          	srli	a5,a5,0xc
    80002f3c:	fe843703          	ld	a4,-24(s0)
    80002f40:	00f707b3          	add	a5,a4,a5
    80002f44:	fef43423          	sd	a5,-24(s0)
    80002f48:	0340006f          	j	80002f7c <page_free+0x98>
    80002f4c:	fe843503          	ld	a0,-24(s0)
    80002f50:	b75ff0ef          	jal	ra,80002ac4 <_is_last>
    80002f54:	00050793          	mv	a5,a0
    80002f58:	00078863          	beqz	a5,80002f68 <page_free+0x84>
    80002f5c:	fe843503          	ld	a0,-24(s0)
    80002f60:	ab5ff0ef          	jal	ra,80002a14 <_clear>
    80002f64:	0300006f          	j	80002f94 <page_free+0xb0>
    80002f68:	fe843503          	ld	a0,-24(s0)
    80002f6c:	aa9ff0ef          	jal	ra,80002a14 <_clear>
    80002f70:	fe843783          	ld	a5,-24(s0)
    80002f74:	00178793          	addi	a5,a5,1
    80002f78:	fef43423          	sd	a5,-24(s0)
    80002f7c:	fe843503          	ld	a0,-24(s0)
    80002f80:	abdff0ef          	jal	ra,80002a3c <_is_free>
    80002f84:	00050793          	mv	a5,a0
    80002f88:	fc0782e3          	beqz	a5,80002f4c <page_free+0x68>
    80002f8c:	0080006f          	j	80002f94 <page_free+0xb0>
    80002f90:	00000013          	nop
    80002f94:	02813083          	ld	ra,40(sp)
    80002f98:	02013403          	ld	s0,32(sp)
    80002f9c:	03010113          	addi	sp,sp,48
    80002fa0:	00008067          	ret

0000000080002fa4 <w_mscratch>:
    80002fa4:	fe010113          	addi	sp,sp,-32
    80002fa8:	00813c23          	sd	s0,24(sp)
    80002fac:	02010413          	addi	s0,sp,32
    80002fb0:	fea43423          	sd	a0,-24(s0)
    80002fb4:	fe843783          	ld	a5,-24(s0)
    80002fb8:	34079073          	csrw	mscratch,a5
    80002fbc:	00000013          	nop
    80002fc0:	01813403          	ld	s0,24(sp)
    80002fc4:	02010113          	addi	sp,sp,32
    80002fc8:	00008067          	ret

0000000080002fcc <sched_init>:
    80002fcc:	ff010113          	addi	sp,sp,-16
    80002fd0:	00113423          	sd	ra,8(sp)
    80002fd4:	00813023          	sd	s0,0(sp)
    80002fd8:	01010413          	addi	s0,sp,16
    80002fdc:	00000513          	li	a0,0
    80002fe0:	fc5ff0ef          	jal	ra,80002fa4 <w_mscratch>
    80002fe4:	00000013          	nop
    80002fe8:	00813083          	ld	ra,8(sp)
    80002fec:	00013403          	ld	s0,0(sp)
    80002ff0:	01010113          	addi	sp,sp,16
    80002ff4:	00008067          	ret

0000000080002ff8 <schedule>:
    80002ff8:	fe010113          	addi	sp,sp,-32
    80002ffc:	00113c23          	sd	ra,24(sp)
    80003000:	00813823          	sd	s0,16(sp)
    80003004:	02010413          	addi	s0,sp,32
    80003008:	00004797          	auipc	a5,0x4
    8000300c:	56078793          	addi	a5,a5,1376 # 80007568 <_top>
    80003010:	0007a783          	lw	a5,0(a5)
    80003014:	00f04a63          	bgtz	a5,80003028 <schedule+0x30>
    80003018:	00000517          	auipc	a0,0x0
    8000301c:	5d850513          	addi	a0,a0,1496 # 800035f0 <BSS_END+0x158>
    80003020:	9b9ff0ef          	jal	ra,800029d8 <panic>
    80003024:	06c0006f          	j	80003090 <schedule+0x98>
    80003028:	00001797          	auipc	a5,0x1
    8000302c:	fd878793          	addi	a5,a5,-40 # 80004000 <_current>
    80003030:	0007a783          	lw	a5,0(a5)
    80003034:	0017879b          	addiw	a5,a5,1
    80003038:	0007871b          	sext.w	a4,a5
    8000303c:	00004797          	auipc	a5,0x4
    80003040:	52c78793          	addi	a5,a5,1324 # 80007568 <_top>
    80003044:	0007a783          	lw	a5,0(a5)
    80003048:	02f767bb          	remw	a5,a4,a5
    8000304c:	0007871b          	sext.w	a4,a5
    80003050:	00001797          	auipc	a5,0x1
    80003054:	fb078793          	addi	a5,a5,-80 # 80004000 <_current>
    80003058:	00e7a023          	sw	a4,0(a5)
    8000305c:	00001797          	auipc	a5,0x1
    80003060:	fa478793          	addi	a5,a5,-92 # 80004000 <_current>
    80003064:	0007a703          	lw	a4,0(a5)
    80003068:	00070793          	mv	a5,a4
    8000306c:	00479793          	slli	a5,a5,0x4
    80003070:	40e787b3          	sub	a5,a5,a4
    80003074:	00479793          	slli	a5,a5,0x4
    80003078:	00004717          	auipc	a4,0x4
    8000307c:	b9070713          	addi	a4,a4,-1136 # 80006c08 <ctx_task>
    80003080:	00e787b3          	add	a5,a5,a4
    80003084:	fef43423          	sd	a5,-24(s0)
    80003088:	fe843503          	ld	a0,-24(s0)
    8000308c:	8e4ff0ef          	jal	ra,80002170 <switch_to>
    80003090:	01813083          	ld	ra,24(sp)
    80003094:	01013403          	ld	s0,16(sp)
    80003098:	02010113          	addi	sp,sp,32
    8000309c:	00008067          	ret

00000000800030a0 <task_create>:
    800030a0:	fe010113          	addi	sp,sp,-32
    800030a4:	00813c23          	sd	s0,24(sp)
    800030a8:	02010413          	addi	s0,sp,32
    800030ac:	fea43423          	sd	a0,-24(s0)
    800030b0:	00004797          	auipc	a5,0x4
    800030b4:	4b878793          	addi	a5,a5,1208 # 80007568 <_top>
    800030b8:	0007a783          	lw	a5,0(a5)
    800030bc:	00078713          	mv	a4,a5
    800030c0:	00900793          	li	a5,9
    800030c4:	0ae7c863          	blt	a5,a4,80003174 <task_create+0xd4>
    800030c8:	00004797          	auipc	a5,0x4
    800030cc:	4a078793          	addi	a5,a5,1184 # 80007568 <_top>
    800030d0:	0007a783          	lw	a5,0(a5)
    800030d4:	00a79793          	slli	a5,a5,0xa
    800030d8:	3ff78713          	addi	a4,a5,1023
    800030dc:	00001797          	auipc	a5,0x1
    800030e0:	32c78793          	addi	a5,a5,812 # 80004408 <task_stack>
    800030e4:	00f707b3          	add	a5,a4,a5
    800030e8:	00178693          	addi	a3,a5,1
    800030ec:	00004797          	auipc	a5,0x4
    800030f0:	47c78793          	addi	a5,a5,1148 # 80007568 <_top>
    800030f4:	0007a703          	lw	a4,0(a5)
    800030f8:	00068613          	mv	a2,a3
    800030fc:	00004697          	auipc	a3,0x4
    80003100:	b0c68693          	addi	a3,a3,-1268 # 80006c08 <ctx_task>
    80003104:	00070793          	mv	a5,a4
    80003108:	00479793          	slli	a5,a5,0x4
    8000310c:	40e787b3          	sub	a5,a5,a4
    80003110:	00479793          	slli	a5,a5,0x4
    80003114:	00f687b3          	add	a5,a3,a5
    80003118:	00c7b423          	sd	a2,8(a5)
    8000311c:	00004797          	auipc	a5,0x4
    80003120:	44c78793          	addi	a5,a5,1100 # 80007568 <_top>
    80003124:	0007a703          	lw	a4,0(a5)
    80003128:	fe843683          	ld	a3,-24(s0)
    8000312c:	00004617          	auipc	a2,0x4
    80003130:	adc60613          	addi	a2,a2,-1316 # 80006c08 <ctx_task>
    80003134:	00070793          	mv	a5,a4
    80003138:	00479793          	slli	a5,a5,0x4
    8000313c:	40e787b3          	sub	a5,a5,a4
    80003140:	00479793          	slli	a5,a5,0x4
    80003144:	00f607b3          	add	a5,a2,a5
    80003148:	00d7b023          	sd	a3,0(a5)
    8000314c:	00004797          	auipc	a5,0x4
    80003150:	41c78793          	addi	a5,a5,1052 # 80007568 <_top>
    80003154:	0007a783          	lw	a5,0(a5)
    80003158:	0017879b          	addiw	a5,a5,1
    8000315c:	0007871b          	sext.w	a4,a5
    80003160:	00004797          	auipc	a5,0x4
    80003164:	40878793          	addi	a5,a5,1032 # 80007568 <_top>
    80003168:	00e7a023          	sw	a4,0(a5)
    8000316c:	00000793          	li	a5,0
    80003170:	0080006f          	j	80003178 <task_create+0xd8>
    80003174:	fff00793          	li	a5,-1
    80003178:	00078513          	mv	a0,a5
    8000317c:	01813403          	ld	s0,24(sp)
    80003180:	02010113          	addi	sp,sp,32
    80003184:	00008067          	ret

0000000080003188 <task_yield>:
    80003188:	ff010113          	addi	sp,sp,-16
    8000318c:	00113423          	sd	ra,8(sp)
    80003190:	00813023          	sd	s0,0(sp)
    80003194:	01010413          	addi	s0,sp,16
    80003198:	e61ff0ef          	jal	ra,80002ff8 <schedule>
    8000319c:	00000013          	nop
    800031a0:	00813083          	ld	ra,8(sp)
    800031a4:	00013403          	ld	s0,0(sp)
    800031a8:	01010113          	addi	sp,sp,16
    800031ac:	00008067          	ret

00000000800031b0 <task_delay>:
    800031b0:	fe010113          	addi	sp,sp,-32
    800031b4:	00813c23          	sd	s0,24(sp)
    800031b8:	02010413          	addi	s0,sp,32
    800031bc:	00050793          	mv	a5,a0
    800031c0:	fef42623          	sw	a5,-20(s0)
    800031c4:	fec42783          	lw	a5,-20(s0)
    800031c8:	0007871b          	sext.w	a4,a5
    800031cc:	000017b7          	lui	a5,0x1
    800031d0:	3887879b          	addiw	a5,a5,904 # 1388 <STACK_SIZE+0xf88>
    800031d4:	02f707bb          	mulw	a5,a4,a5
    800031d8:	0007879b          	sext.w	a5,a5
    800031dc:	fef42623          	sw	a5,-20(s0)
    800031e0:	00000013          	nop
    800031e4:	fec42783          	lw	a5,-20(s0)
    800031e8:	0007879b          	sext.w	a5,a5
    800031ec:	fff7871b          	addiw	a4,a5,-1
    800031f0:	0007071b          	sext.w	a4,a4
    800031f4:	fee42623          	sw	a4,-20(s0)
    800031f8:	fe0796e3          	bnez	a5,800031e4 <task_delay+0x34>
    800031fc:	00000013          	nop
    80003200:	00000013          	nop
    80003204:	01813403          	ld	s0,24(sp)
    80003208:	02010113          	addi	sp,sp,32
    8000320c:	00008067          	ret

0000000080003210 <user_task0>:
    80003210:	ff010113          	addi	sp,sp,-16
    80003214:	00113423          	sd	ra,8(sp)
    80003218:	00813023          	sd	s0,0(sp)
    8000321c:	01010413          	addi	s0,sp,16
    80003220:	00000517          	auipc	a0,0x0
    80003224:	40050513          	addi	a0,a0,1024 # 80003620 <BSS_END+0x188>
    80003228:	974ff0ef          	jal	ra,8000239c <uart_puts>
    8000322c:	00000517          	auipc	a0,0x0
    80003230:	40c50513          	addi	a0,a0,1036 # 80003638 <BSS_END+0x1a0>
    80003234:	968ff0ef          	jal	ra,8000239c <uart_puts>
    80003238:	1dc000ef          	jal	ra,80003414 <trap_test>
    8000323c:	00a00513          	li	a0,10
    80003240:	f71ff0ef          	jal	ra,800031b0 <task_delay>
    80003244:	f45ff0ef          	jal	ra,80003188 <task_yield>
    80003248:	00000013          	nop
    8000324c:	fe1ff06f          	j	8000322c <user_task0+0x1c>

0000000080003250 <user_task1>:
    80003250:	ff010113          	addi	sp,sp,-16
    80003254:	00113423          	sd	ra,8(sp)
    80003258:	00813023          	sd	s0,0(sp)
    8000325c:	01010413          	addi	s0,sp,16
    80003260:	00000517          	auipc	a0,0x0
    80003264:	3f050513          	addi	a0,a0,1008 # 80003650 <BSS_END+0x1b8>
    80003268:	934ff0ef          	jal	ra,8000239c <uart_puts>
    8000326c:	00000517          	auipc	a0,0x0
    80003270:	3fc50513          	addi	a0,a0,1020 # 80003668 <BSS_END+0x1d0>
    80003274:	928ff0ef          	jal	ra,8000239c <uart_puts>
    80003278:	00a00513          	li	a0,10
    8000327c:	f35ff0ef          	jal	ra,800031b0 <task_delay>
    80003280:	f09ff0ef          	jal	ra,80003188 <task_yield>
    80003284:	00000013          	nop
    80003288:	fe5ff06f          	j	8000326c <user_task1+0x1c>

000000008000328c <os_main>:
    8000328c:	ff010113          	addi	sp,sp,-16
    80003290:	00113423          	sd	ra,8(sp)
    80003294:	00813023          	sd	s0,0(sp)
    80003298:	01010413          	addi	s0,sp,16
    8000329c:	00000517          	auipc	a0,0x0
    800032a0:	f7450513          	addi	a0,a0,-140 # 80003210 <user_task0>
    800032a4:	dfdff0ef          	jal	ra,800030a0 <task_create>
    800032a8:	00000517          	auipc	a0,0x0
    800032ac:	fa850513          	addi	a0,a0,-88 # 80003250 <user_task1>
    800032b0:	df1ff0ef          	jal	ra,800030a0 <task_create>
    800032b4:	00000013          	nop
    800032b8:	00813083          	ld	ra,8(sp)
    800032bc:	00013403          	ld	s0,0(sp)
    800032c0:	01010113          	addi	sp,sp,16
    800032c4:	00008067          	ret

00000000800032c8 <w_mtvec>:
    800032c8:	fe010113          	addi	sp,sp,-32
    800032cc:	00813c23          	sd	s0,24(sp)
    800032d0:	02010413          	addi	s0,sp,32
    800032d4:	fea43423          	sd	a0,-24(s0)
    800032d8:	fe843783          	ld	a5,-24(s0)
    800032dc:	30579073          	csrw	mtvec,a5
    800032e0:	00000013          	nop
    800032e4:	01813403          	ld	s0,24(sp)
    800032e8:	02010113          	addi	sp,sp,32
    800032ec:	00008067          	ret

00000000800032f0 <trap_init>:
    800032f0:	ff010113          	addi	sp,sp,-16
    800032f4:	00113423          	sd	ra,8(sp)
    800032f8:	00813023          	sd	s0,0(sp)
    800032fc:	01010413          	addi	s0,sp,16
    80003300:	fffff797          	auipc	a5,0xfffff
    80003304:	d5078793          	addi	a5,a5,-688 # 80002050 <trap_vector>
    80003308:	00078513          	mv	a0,a5
    8000330c:	fbdff0ef          	jal	ra,800032c8 <w_mtvec>
    80003310:	00000013          	nop
    80003314:	00813083          	ld	ra,8(sp)
    80003318:	00013403          	ld	s0,0(sp)
    8000331c:	01010113          	addi	sp,sp,16
    80003320:	00008067          	ret

0000000080003324 <trap_handler>:
    80003324:	fd010113          	addi	sp,sp,-48
    80003328:	02113423          	sd	ra,40(sp)
    8000332c:	02813023          	sd	s0,32(sp)
    80003330:	03010413          	addi	s0,sp,48
    80003334:	fca43c23          	sd	a0,-40(s0)
    80003338:	fcb43823          	sd	a1,-48(s0)
    8000333c:	fd843783          	ld	a5,-40(s0)
    80003340:	fef43423          	sd	a5,-24(s0)
    80003344:	fd043703          	ld	a4,-48(s0)
    80003348:	000017b7          	lui	a5,0x1
    8000334c:	fff78793          	addi	a5,a5,-1 # fff <STACK_SIZE+0xbff>
    80003350:	00f777b3          	and	a5,a4,a5
    80003354:	fef43023          	sd	a5,-32(s0)
    80003358:	fd043703          	ld	a4,-48(s0)
    8000335c:	00100793          	li	a5,1
    80003360:	01f79793          	slli	a5,a5,0x1f
    80003364:	00f777b3          	and	a5,a4,a5
    80003368:	06078c63          	beqz	a5,800033e0 <trap_handler+0xbc>
    8000336c:	fe043703          	ld	a4,-32(s0)
    80003370:	00b00793          	li	a5,11
    80003374:	04f70663          	beq	a4,a5,800033c0 <trap_handler+0x9c>
    80003378:	fe043703          	ld	a4,-32(s0)
    8000337c:	00b00793          	li	a5,11
    80003380:	04e7e863          	bltu	a5,a4,800033d0 <trap_handler+0xac>
    80003384:	fe043703          	ld	a4,-32(s0)
    80003388:	00300793          	li	a5,3
    8000338c:	00f70a63          	beq	a4,a5,800033a0 <trap_handler+0x7c>
    80003390:	fe043703          	ld	a4,-32(s0)
    80003394:	00700793          	li	a5,7
    80003398:	00f70c63          	beq	a4,a5,800033b0 <trap_handler+0x8c>
    8000339c:	0340006f          	j	800033d0 <trap_handler+0xac>
    800033a0:	00000517          	auipc	a0,0x0
    800033a4:	2e050513          	addi	a0,a0,736 # 80003680 <BSS_END+0x1e8>
    800033a8:	ff5fe0ef          	jal	ra,8000239c <uart_puts>
    800033ac:	0500006f          	j	800033fc <trap_handler+0xd8>
    800033b0:	00000517          	auipc	a0,0x0
    800033b4:	2e850513          	addi	a0,a0,744 # 80003698 <BSS_END+0x200>
    800033b8:	fe5fe0ef          	jal	ra,8000239c <uart_puts>
    800033bc:	0400006f          	j	800033fc <trap_handler+0xd8>
    800033c0:	00000517          	auipc	a0,0x0
    800033c4:	2f050513          	addi	a0,a0,752 # 800036b0 <BSS_END+0x218>
    800033c8:	fd5fe0ef          	jal	ra,8000239c <uart_puts>
    800033cc:	0300006f          	j	800033fc <trap_handler+0xd8>
    800033d0:	00000517          	auipc	a0,0x0
    800033d4:	2f850513          	addi	a0,a0,760 # 800036c8 <BSS_END+0x230>
    800033d8:	fc5fe0ef          	jal	ra,8000239c <uart_puts>
    800033dc:	0200006f          	j	800033fc <trap_handler+0xd8>
    800033e0:	fe043583          	ld	a1,-32(s0)
    800033e4:	00000517          	auipc	a0,0x0
    800033e8:	30450513          	addi	a0,a0,772 # 800036e8 <BSS_END+0x250>
    800033ec:	d74ff0ef          	jal	ra,80002960 <printf>
    800033f0:	00000517          	auipc	a0,0x0
    800033f4:	31850513          	addi	a0,a0,792 # 80003708 <BSS_END+0x270>
    800033f8:	de0ff0ef          	jal	ra,800029d8 <panic>
    800033fc:	fe843783          	ld	a5,-24(s0)
    80003400:	00078513          	mv	a0,a5
    80003404:	02813083          	ld	ra,40(sp)
    80003408:	02013403          	ld	s0,32(sp)
    8000340c:	03010113          	addi	sp,sp,48
    80003410:	00008067          	ret

0000000080003414 <trap_test>:
    80003414:	ff010113          	addi	sp,sp,-16
    80003418:	00113423          	sd	ra,8(sp)
    8000341c:	00813023          	sd	s0,0(sp)
    80003420:	01010413          	addi	s0,sp,16
    80003424:	00100793          	li	a5,1
    80003428:	06400713          	li	a4,100
    8000342c:	00e7a023          	sw	a4,0(a5)
    80003430:	00000517          	auipc	a0,0x0
    80003434:	2f050513          	addi	a0,a0,752 # 80003720 <BSS_END+0x288>
    80003438:	f65fe0ef          	jal	ra,8000239c <uart_puts>
    8000343c:	00000013          	nop
    80003440:	00813083          	ld	ra,8(sp)
    80003444:	00013403          	ld	s0,0(sp)
    80003448:	01010113          	addi	sp,sp,16
    8000344c:	00008067          	ret
