
os.elf:     file format elf64-littleriscv


Disassembly of section .text:

0000000080000000 <_start>:
    80000000:	f14022f3          	csrr	t0,mhartid
    80000004:	00028213          	mv	tp,t0
    80000008:	02029c63          	bnez	t0,80000040 <park>
    8000000c:	00003517          	auipc	a0,0x3
    80000010:	ff450513          	addi	a0,a0,-12 # 80003000 <out_buf>
    80000014:	00003597          	auipc	a1,0x3
    80000018:	3ec58593          	addi	a1,a1,1004 # 80003400 <_bss_end>
    8000001c:	00b57863          	bgeu	a0,a1,8000002c <_start+0x2c>
    80000020:	00053023          	sd	zero,0(a0)
    80000024:	00850513          	addi	a0,a0,8
    80000028:	feb56ce3          	bltu	a0,a1,80000020 <_start+0x20>
    8000002c:	00a29293          	slli	t0,t0,0xa
    80000030:	00000117          	auipc	sp,0x0
    80000034:	41410113          	addi	sp,sp,1044 # 80000444 <stacks+0x400>
    80000038:	00510133          	add	sp,sp,t0
    8000003c:	0080206f          	j	80002044 <start_kernel>

0000000080000040 <park>:
    80000040:	0000006f          	j	80000040 <park>

0000000080000044 <stacks>:
	...

0000000080002044 <start_kernel>:
    80002044:	ff010113          	addi	sp,sp,-16
    80002048:	00113423          	sd	ra,8(sp)
    8000204c:	00813023          	sd	s0,0(sp)
    80002050:	01010413          	addi	s0,sp,16
    80002054:	01c000ef          	jal	ra,80002070 <uart_init>
    80002058:	00001517          	auipc	a0,0x1
    8000205c:	d5050513          	addi	a0,a0,-688 # 80002da8 <BSS_END+0x8>
    80002060:	0ec000ef          	jal	ra,8000214c <uart_puts>
    80002064:	099000ef          	jal	ra,800028fc <page_init>
    80002068:	00000013          	nop
    8000206c:	ffdff06f          	j	80002068 <start_kernel+0x24>

0000000080002070 <uart_init>:
    80002070:	fe010113          	addi	sp,sp,-32
    80002074:	00813c23          	sd	s0,24(sp)
    80002078:	02010413          	addi	s0,sp,32
    8000207c:	100007b7          	lui	a5,0x10000
    80002080:	00178793          	addi	a5,a5,1 # 10000001 <_heap_size+0x8003401>
    80002084:	00078023          	sb	zero,0(a5)
    80002088:	100007b7          	lui	a5,0x10000
    8000208c:	00378793          	addi	a5,a5,3 # 10000003 <_heap_size+0x8003403>
    80002090:	0007c783          	lbu	a5,0(a5)
    80002094:	fef407a3          	sb	a5,-17(s0)
    80002098:	100007b7          	lui	a5,0x10000
    8000209c:	00378793          	addi	a5,a5,3 # 10000003 <_heap_size+0x8003403>
    800020a0:	fef44703          	lbu	a4,-17(s0)
    800020a4:	f8076713          	ori	a4,a4,-128
    800020a8:	0ff77713          	zext.b	a4,a4
    800020ac:	00e78023          	sb	a4,0(a5)
    800020b0:	100007b7          	lui	a5,0x10000
    800020b4:	00300713          	li	a4,3
    800020b8:	00e78023          	sb	a4,0(a5) # 10000000 <_heap_size+0x8003400>
    800020bc:	100007b7          	lui	a5,0x10000
    800020c0:	00178793          	addi	a5,a5,1 # 10000001 <_heap_size+0x8003401>
    800020c4:	00078023          	sb	zero,0(a5)
    800020c8:	fe0407a3          	sb	zero,-17(s0)
    800020cc:	100007b7          	lui	a5,0x10000
    800020d0:	00378793          	addi	a5,a5,3 # 10000003 <_heap_size+0x8003403>
    800020d4:	fef44703          	lbu	a4,-17(s0)
    800020d8:	00376713          	ori	a4,a4,3
    800020dc:	0ff77713          	zext.b	a4,a4
    800020e0:	00e78023          	sb	a4,0(a5)
    800020e4:	00000013          	nop
    800020e8:	01813403          	ld	s0,24(sp)
    800020ec:	02010113          	addi	sp,sp,32
    800020f0:	00008067          	ret

00000000800020f4 <uart_putc>:
    800020f4:	fe010113          	addi	sp,sp,-32
    800020f8:	00813c23          	sd	s0,24(sp)
    800020fc:	02010413          	addi	s0,sp,32
    80002100:	00050793          	mv	a5,a0
    80002104:	fef407a3          	sb	a5,-17(s0)
    80002108:	00000013          	nop
    8000210c:	100007b7          	lui	a5,0x10000
    80002110:	00578793          	addi	a5,a5,5 # 10000005 <_heap_size+0x8003405>
    80002114:	0007c783          	lbu	a5,0(a5)
    80002118:	0ff7f793          	zext.b	a5,a5
    8000211c:	0007879b          	sext.w	a5,a5
    80002120:	0207f793          	andi	a5,a5,32
    80002124:	0007879b          	sext.w	a5,a5
    80002128:	fe0782e3          	beqz	a5,8000210c <uart_putc+0x18>
    8000212c:	10000737          	lui	a4,0x10000
    80002130:	fef44783          	lbu	a5,-17(s0)
    80002134:	00f70023          	sb	a5,0(a4) # 10000000 <_heap_size+0x8003400>
    80002138:	0007879b          	sext.w	a5,a5
    8000213c:	00078513          	mv	a0,a5
    80002140:	01813403          	ld	s0,24(sp)
    80002144:	02010113          	addi	sp,sp,32
    80002148:	00008067          	ret

000000008000214c <uart_puts>:
    8000214c:	fe010113          	addi	sp,sp,-32
    80002150:	00113c23          	sd	ra,24(sp)
    80002154:	00813823          	sd	s0,16(sp)
    80002158:	02010413          	addi	s0,sp,32
    8000215c:	fea43423          	sd	a0,-24(s0)
    80002160:	0200006f          	j	80002180 <uart_puts+0x34>
    80002164:	fe843783          	ld	a5,-24(s0)
    80002168:	0007c783          	lbu	a5,0(a5)
    8000216c:	00078513          	mv	a0,a5
    80002170:	f85ff0ef          	jal	ra,800020f4 <uart_putc>
    80002174:	fe843783          	ld	a5,-24(s0)
    80002178:	00178793          	addi	a5,a5,1
    8000217c:	fef43423          	sd	a5,-24(s0)
    80002180:	fe843783          	ld	a5,-24(s0)
    80002184:	0007c783          	lbu	a5,0(a5)
    80002188:	fc079ee3          	bnez	a5,80002164 <uart_puts+0x18>
    8000218c:	00000013          	nop
    80002190:	00000013          	nop
    80002194:	01813083          	ld	ra,24(sp)
    80002198:	01013403          	ld	s0,16(sp)
    8000219c:	02010113          	addi	sp,sp,32
    800021a0:	00008067          	ret

00000000800021a4 <_vsnprintf>:
    800021a4:	f8010113          	addi	sp,sp,-128
    800021a8:	06813c23          	sd	s0,120(sp)
    800021ac:	08010413          	addi	s0,sp,128
    800021b0:	f8a43c23          	sd	a0,-104(s0)
    800021b4:	f8b43823          	sd	a1,-112(s0)
    800021b8:	f8c43423          	sd	a2,-120(s0)
    800021bc:	f8d43023          	sd	a3,-128(s0)
    800021c0:	fe042623          	sw	zero,-20(s0)
    800021c4:	fe042423          	sw	zero,-24(s0)
    800021c8:	fe043023          	sd	zero,-32(s0)
    800021cc:	4280006f          	j	800025f4 <_vsnprintf+0x450>
    800021d0:	fec42783          	lw	a5,-20(s0)
    800021d4:	0007879b          	sext.w	a5,a5
    800021d8:	3a078863          	beqz	a5,80002588 <_vsnprintf+0x3e4>
    800021dc:	f8843783          	ld	a5,-120(s0)
    800021e0:	0007c783          	lbu	a5,0(a5)
    800021e4:	0007879b          	sext.w	a5,a5
    800021e8:	f9d7869b          	addiw	a3,a5,-99
    800021ec:	0006871b          	sext.w	a4,a3
    800021f0:	01500793          	li	a5,21
    800021f4:	3ee7e863          	bltu	a5,a4,800025e4 <_vsnprintf+0x440>
    800021f8:	02069793          	slli	a5,a3,0x20
    800021fc:	0207d793          	srli	a5,a5,0x20
    80002200:	00279713          	slli	a4,a5,0x2
    80002204:	00001797          	auipc	a5,0x1
    80002208:	bb478793          	addi	a5,a5,-1100 # 80002db8 <BSS_END+0x18>
    8000220c:	00f707b3          	add	a5,a4,a5
    80002210:	0007a783          	lw	a5,0(a5)
    80002214:	0007871b          	sext.w	a4,a5
    80002218:	00001797          	auipc	a5,0x1
    8000221c:	ba078793          	addi	a5,a5,-1120 # 80002db8 <BSS_END+0x18>
    80002220:	00f707b3          	add	a5,a4,a5
    80002224:	00078067          	jr	a5
    80002228:	00100793          	li	a5,1
    8000222c:	fef42423          	sw	a5,-24(s0)
    80002230:	3b80006f          	j	800025e8 <_vsnprintf+0x444>
    80002234:	00100793          	li	a5,1
    80002238:	fef42423          	sw	a5,-24(s0)
    8000223c:	f9843783          	ld	a5,-104(s0)
    80002240:	02078263          	beqz	a5,80002264 <_vsnprintf+0xc0>
    80002244:	fe043703          	ld	a4,-32(s0)
    80002248:	f9043783          	ld	a5,-112(s0)
    8000224c:	00f77c63          	bgeu	a4,a5,80002264 <_vsnprintf+0xc0>
    80002250:	f9843703          	ld	a4,-104(s0)
    80002254:	fe043783          	ld	a5,-32(s0)
    80002258:	00f707b3          	add	a5,a4,a5
    8000225c:	03000713          	li	a4,48
    80002260:	00e78023          	sb	a4,0(a5)
    80002264:	fe043783          	ld	a5,-32(s0)
    80002268:	00178793          	addi	a5,a5,1
    8000226c:	fef43023          	sd	a5,-32(s0)
    80002270:	f9843783          	ld	a5,-104(s0)
    80002274:	02078263          	beqz	a5,80002298 <_vsnprintf+0xf4>
    80002278:	fe043703          	ld	a4,-32(s0)
    8000227c:	f9043783          	ld	a5,-112(s0)
    80002280:	00f77c63          	bgeu	a4,a5,80002298 <_vsnprintf+0xf4>
    80002284:	f9843703          	ld	a4,-104(s0)
    80002288:	fe043783          	ld	a5,-32(s0)
    8000228c:	00f707b3          	add	a5,a4,a5
    80002290:	07800713          	li	a4,120
    80002294:	00e78023          	sb	a4,0(a5)
    80002298:	fe043783          	ld	a5,-32(s0)
    8000229c:	00178793          	addi	a5,a5,1
    800022a0:	fef43023          	sd	a5,-32(s0)
    800022a4:	f8043783          	ld	a5,-128(s0)
    800022a8:	00878713          	addi	a4,a5,8
    800022ac:	f8e43023          	sd	a4,-128(s0)
    800022b0:	0007b783          	ld	a5,0(a5)
    800022b4:	faf43423          	sd	a5,-88(s0)
    800022b8:	fe842783          	lw	a5,-24(s0)
    800022bc:	0007879b          	sext.w	a5,a5
    800022c0:	00078663          	beqz	a5,800022cc <_vsnprintf+0x128>
    800022c4:	00f00793          	li	a5,15
    800022c8:	0080006f          	j	800022d0 <_vsnprintf+0x12c>
    800022cc:	00700793          	li	a5,7
    800022d0:	faf42223          	sw	a5,-92(s0)
    800022d4:	fa442783          	lw	a5,-92(s0)
    800022d8:	fcf42e23          	sw	a5,-36(s0)
    800022dc:	0940006f          	j	80002370 <_vsnprintf+0x1cc>
    800022e0:	fdc42783          	lw	a5,-36(s0)
    800022e4:	0027979b          	slliw	a5,a5,0x2
    800022e8:	0007879b          	sext.w	a5,a5
    800022ec:	fa843703          	ld	a4,-88(s0)
    800022f0:	40f757b3          	sra	a5,a4,a5
    800022f4:	0007879b          	sext.w	a5,a5
    800022f8:	00f7f793          	andi	a5,a5,15
    800022fc:	faf42023          	sw	a5,-96(s0)
    80002300:	f9843783          	ld	a5,-104(s0)
    80002304:	04078a63          	beqz	a5,80002358 <_vsnprintf+0x1b4>
    80002308:	fe043703          	ld	a4,-32(s0)
    8000230c:	f9043783          	ld	a5,-112(s0)
    80002310:	04f77463          	bgeu	a4,a5,80002358 <_vsnprintf+0x1b4>
    80002314:	fa042783          	lw	a5,-96(s0)
    80002318:	0007871b          	sext.w	a4,a5
    8000231c:	00900793          	li	a5,9
    80002320:	00e7cc63          	blt	a5,a4,80002338 <_vsnprintf+0x194>
    80002324:	fa042783          	lw	a5,-96(s0)
    80002328:	0ff7f793          	zext.b	a5,a5
    8000232c:	0307879b          	addiw	a5,a5,48
    80002330:	0ff7f793          	zext.b	a5,a5
    80002334:	0140006f          	j	80002348 <_vsnprintf+0x1a4>
    80002338:	fa042783          	lw	a5,-96(s0)
    8000233c:	0ff7f793          	zext.b	a5,a5
    80002340:	0577879b          	addiw	a5,a5,87
    80002344:	0ff7f793          	zext.b	a5,a5
    80002348:	f9843683          	ld	a3,-104(s0)
    8000234c:	fe043703          	ld	a4,-32(s0)
    80002350:	00e68733          	add	a4,a3,a4
    80002354:	00f70023          	sb	a5,0(a4)
    80002358:	fe043783          	ld	a5,-32(s0)
    8000235c:	00178793          	addi	a5,a5,1
    80002360:	fef43023          	sd	a5,-32(s0)
    80002364:	fdc42783          	lw	a5,-36(s0)
    80002368:	fff7879b          	addiw	a5,a5,-1
    8000236c:	fcf42e23          	sw	a5,-36(s0)
    80002370:	fdc42783          	lw	a5,-36(s0)
    80002374:	0007879b          	sext.w	a5,a5
    80002378:	f607d4e3          	bgez	a5,800022e0 <_vsnprintf+0x13c>
    8000237c:	fe042423          	sw	zero,-24(s0)
    80002380:	fe042623          	sw	zero,-20(s0)
    80002384:	2640006f          	j	800025e8 <_vsnprintf+0x444>
    80002388:	f8043783          	ld	a5,-128(s0)
    8000238c:	00878713          	addi	a4,a5,8
    80002390:	f8e43023          	sd	a4,-128(s0)
    80002394:	0007b783          	ld	a5,0(a5)
    80002398:	fcf43823          	sd	a5,-48(s0)
    8000239c:	fd043783          	ld	a5,-48(s0)
    800023a0:	0407d263          	bgez	a5,800023e4 <_vsnprintf+0x240>
    800023a4:	fd043783          	ld	a5,-48(s0)
    800023a8:	40f007b3          	neg	a5,a5
    800023ac:	fcf43823          	sd	a5,-48(s0)
    800023b0:	f9843783          	ld	a5,-104(s0)
    800023b4:	02078263          	beqz	a5,800023d8 <_vsnprintf+0x234>
    800023b8:	fe043703          	ld	a4,-32(s0)
    800023bc:	f9043783          	ld	a5,-112(s0)
    800023c0:	00f77c63          	bgeu	a4,a5,800023d8 <_vsnprintf+0x234>
    800023c4:	f9843703          	ld	a4,-104(s0)
    800023c8:	fe043783          	ld	a5,-32(s0)
    800023cc:	00f707b3          	add	a5,a4,a5
    800023d0:	02d00713          	li	a4,45
    800023d4:	00e78023          	sb	a4,0(a5)
    800023d8:	fe043783          	ld	a5,-32(s0)
    800023dc:	00178793          	addi	a5,a5,1
    800023e0:	fef43023          	sd	a5,-32(s0)
    800023e4:	00100793          	li	a5,1
    800023e8:	fcf43423          	sd	a5,-56(s0)
    800023ec:	fd043783          	ld	a5,-48(s0)
    800023f0:	fcf43023          	sd	a5,-64(s0)
    800023f4:	0100006f          	j	80002404 <_vsnprintf+0x260>
    800023f8:	fc843783          	ld	a5,-56(s0)
    800023fc:	00178793          	addi	a5,a5,1
    80002400:	fcf43423          	sd	a5,-56(s0)
    80002404:	fc043703          	ld	a4,-64(s0)
    80002408:	00a00793          	li	a5,10
    8000240c:	02f747b3          	div	a5,a4,a5
    80002410:	fcf43023          	sd	a5,-64(s0)
    80002414:	fc043783          	ld	a5,-64(s0)
    80002418:	fe0790e3          	bnez	a5,800023f8 <_vsnprintf+0x254>
    8000241c:	fc843783          	ld	a5,-56(s0)
    80002420:	0007879b          	sext.w	a5,a5
    80002424:	fff7879b          	addiw	a5,a5,-1
    80002428:	0007879b          	sext.w	a5,a5
    8000242c:	faf42e23          	sw	a5,-68(s0)
    80002430:	06c0006f          	j	8000249c <_vsnprintf+0x2f8>
    80002434:	f9843783          	ld	a5,-104(s0)
    80002438:	04078463          	beqz	a5,80002480 <_vsnprintf+0x2dc>
    8000243c:	fbc42703          	lw	a4,-68(s0)
    80002440:	fe043783          	ld	a5,-32(s0)
    80002444:	00f707b3          	add	a5,a4,a5
    80002448:	f9043703          	ld	a4,-112(s0)
    8000244c:	02e7fa63          	bgeu	a5,a4,80002480 <_vsnprintf+0x2dc>
    80002450:	fd043703          	ld	a4,-48(s0)
    80002454:	00a00793          	li	a5,10
    80002458:	02f767b3          	rem	a5,a4,a5
    8000245c:	0ff7f713          	zext.b	a4,a5
    80002460:	fbc42683          	lw	a3,-68(s0)
    80002464:	fe043783          	ld	a5,-32(s0)
    80002468:	00f687b3          	add	a5,a3,a5
    8000246c:	f9843683          	ld	a3,-104(s0)
    80002470:	00f687b3          	add	a5,a3,a5
    80002474:	0307071b          	addiw	a4,a4,48
    80002478:	0ff77713          	zext.b	a4,a4
    8000247c:	00e78023          	sb	a4,0(a5)
    80002480:	fd043703          	ld	a4,-48(s0)
    80002484:	00a00793          	li	a5,10
    80002488:	02f747b3          	div	a5,a4,a5
    8000248c:	fcf43823          	sd	a5,-48(s0)
    80002490:	fbc42783          	lw	a5,-68(s0)
    80002494:	fff7879b          	addiw	a5,a5,-1
    80002498:	faf42e23          	sw	a5,-68(s0)
    8000249c:	fbc42783          	lw	a5,-68(s0)
    800024a0:	0007879b          	sext.w	a5,a5
    800024a4:	f807d8e3          	bgez	a5,80002434 <_vsnprintf+0x290>
    800024a8:	fc843783          	ld	a5,-56(s0)
    800024ac:	fe043703          	ld	a4,-32(s0)
    800024b0:	00f707b3          	add	a5,a4,a5
    800024b4:	fef43023          	sd	a5,-32(s0)
    800024b8:	fe042423          	sw	zero,-24(s0)
    800024bc:	fe042623          	sw	zero,-20(s0)
    800024c0:	1280006f          	j	800025e8 <_vsnprintf+0x444>
    800024c4:	f8043783          	ld	a5,-128(s0)
    800024c8:	00878713          	addi	a4,a5,8
    800024cc:	f8e43023          	sd	a4,-128(s0)
    800024d0:	0007b783          	ld	a5,0(a5)
    800024d4:	faf43823          	sd	a5,-80(s0)
    800024d8:	0480006f          	j	80002520 <_vsnprintf+0x37c>
    800024dc:	f9843783          	ld	a5,-104(s0)
    800024e0:	02078463          	beqz	a5,80002508 <_vsnprintf+0x364>
    800024e4:	fe043703          	ld	a4,-32(s0)
    800024e8:	f9043783          	ld	a5,-112(s0)
    800024ec:	00f77e63          	bgeu	a4,a5,80002508 <_vsnprintf+0x364>
    800024f0:	f9843703          	ld	a4,-104(s0)
    800024f4:	fe043783          	ld	a5,-32(s0)
    800024f8:	00f707b3          	add	a5,a4,a5
    800024fc:	fb043703          	ld	a4,-80(s0)
    80002500:	00074703          	lbu	a4,0(a4)
    80002504:	00e78023          	sb	a4,0(a5)
    80002508:	fe043783          	ld	a5,-32(s0)
    8000250c:	00178793          	addi	a5,a5,1
    80002510:	fef43023          	sd	a5,-32(s0)
    80002514:	fb043783          	ld	a5,-80(s0)
    80002518:	00178793          	addi	a5,a5,1
    8000251c:	faf43823          	sd	a5,-80(s0)
    80002520:	fb043783          	ld	a5,-80(s0)
    80002524:	0007c783          	lbu	a5,0(a5)
    80002528:	fa079ae3          	bnez	a5,800024dc <_vsnprintf+0x338>
    8000252c:	fe042423          	sw	zero,-24(s0)
    80002530:	fe042623          	sw	zero,-20(s0)
    80002534:	0b40006f          	j	800025e8 <_vsnprintf+0x444>
    80002538:	f9843783          	ld	a5,-104(s0)
    8000253c:	02078a63          	beqz	a5,80002570 <_vsnprintf+0x3cc>
    80002540:	fe043703          	ld	a4,-32(s0)
    80002544:	f9043783          	ld	a5,-112(s0)
    80002548:	02f77463          	bgeu	a4,a5,80002570 <_vsnprintf+0x3cc>
    8000254c:	f8043783          	ld	a5,-128(s0)
    80002550:	00878713          	addi	a4,a5,8
    80002554:	f8e43023          	sd	a4,-128(s0)
    80002558:	0007b683          	ld	a3,0(a5)
    8000255c:	f9843703          	ld	a4,-104(s0)
    80002560:	fe043783          	ld	a5,-32(s0)
    80002564:	00f707b3          	add	a5,a4,a5
    80002568:	0ff6f713          	zext.b	a4,a3
    8000256c:	00e78023          	sb	a4,0(a5)
    80002570:	fe043783          	ld	a5,-32(s0)
    80002574:	00178793          	addi	a5,a5,1
    80002578:	fef43023          	sd	a5,-32(s0)
    8000257c:	fe042423          	sw	zero,-24(s0)
    80002580:	fe042623          	sw	zero,-20(s0)
    80002584:	0640006f          	j	800025e8 <_vsnprintf+0x444>
    80002588:	f8843783          	ld	a5,-120(s0)
    8000258c:	0007c783          	lbu	a5,0(a5)
    80002590:	00078713          	mv	a4,a5
    80002594:	02500793          	li	a5,37
    80002598:	00f71863          	bne	a4,a5,800025a8 <_vsnprintf+0x404>
    8000259c:	00100793          	li	a5,1
    800025a0:	fef42623          	sw	a5,-20(s0)
    800025a4:	0440006f          	j	800025e8 <_vsnprintf+0x444>
    800025a8:	f9843783          	ld	a5,-104(s0)
    800025ac:	02078463          	beqz	a5,800025d4 <_vsnprintf+0x430>
    800025b0:	fe043703          	ld	a4,-32(s0)
    800025b4:	f9043783          	ld	a5,-112(s0)
    800025b8:	00f77e63          	bgeu	a4,a5,800025d4 <_vsnprintf+0x430>
    800025bc:	f9843703          	ld	a4,-104(s0)
    800025c0:	fe043783          	ld	a5,-32(s0)
    800025c4:	00f707b3          	add	a5,a4,a5
    800025c8:	f8843703          	ld	a4,-120(s0)
    800025cc:	00074703          	lbu	a4,0(a4)
    800025d0:	00e78023          	sb	a4,0(a5)
    800025d4:	fe043783          	ld	a5,-32(s0)
    800025d8:	00178793          	addi	a5,a5,1
    800025dc:	fef43023          	sd	a5,-32(s0)
    800025e0:	0080006f          	j	800025e8 <_vsnprintf+0x444>
    800025e4:	00000013          	nop
    800025e8:	f8843783          	ld	a5,-120(s0)
    800025ec:	00178793          	addi	a5,a5,1
    800025f0:	f8f43423          	sd	a5,-120(s0)
    800025f4:	f8843783          	ld	a5,-120(s0)
    800025f8:	0007c783          	lbu	a5,0(a5)
    800025fc:	bc079ae3          	bnez	a5,800021d0 <_vsnprintf+0x2c>
    80002600:	f9843783          	ld	a5,-104(s0)
    80002604:	02078263          	beqz	a5,80002628 <_vsnprintf+0x484>
    80002608:	fe043703          	ld	a4,-32(s0)
    8000260c:	f9043783          	ld	a5,-112(s0)
    80002610:	00f77c63          	bgeu	a4,a5,80002628 <_vsnprintf+0x484>
    80002614:	f9843703          	ld	a4,-104(s0)
    80002618:	fe043783          	ld	a5,-32(s0)
    8000261c:	00f707b3          	add	a5,a4,a5
    80002620:	00078023          	sb	zero,0(a5)
    80002624:	0280006f          	j	8000264c <_vsnprintf+0x4a8>
    80002628:	f9843783          	ld	a5,-104(s0)
    8000262c:	02078063          	beqz	a5,8000264c <_vsnprintf+0x4a8>
    80002630:	f9043783          	ld	a5,-112(s0)
    80002634:	00078c63          	beqz	a5,8000264c <_vsnprintf+0x4a8>
    80002638:	f9043783          	ld	a5,-112(s0)
    8000263c:	fff78793          	addi	a5,a5,-1
    80002640:	f9843703          	ld	a4,-104(s0)
    80002644:	00f707b3          	add	a5,a4,a5
    80002648:	00078023          	sb	zero,0(a5)
    8000264c:	fe043783          	ld	a5,-32(s0)
    80002650:	0007879b          	sext.w	a5,a5
    80002654:	00078513          	mv	a0,a5
    80002658:	07813403          	ld	s0,120(sp)
    8000265c:	08010113          	addi	sp,sp,128
    80002660:	00008067          	ret

0000000080002664 <_vprintf>:
    80002664:	fd010113          	addi	sp,sp,-48
    80002668:	02113423          	sd	ra,40(sp)
    8000266c:	02813023          	sd	s0,32(sp)
    80002670:	03010413          	addi	s0,sp,48
    80002674:	fca43c23          	sd	a0,-40(s0)
    80002678:	fcb43823          	sd	a1,-48(s0)
    8000267c:	fd043683          	ld	a3,-48(s0)
    80002680:	fd843603          	ld	a2,-40(s0)
    80002684:	fff00593          	li	a1,-1
    80002688:	00000513          	li	a0,0
    8000268c:	b19ff0ef          	jal	ra,800021a4 <_vsnprintf>
    80002690:	00050793          	mv	a5,a0
    80002694:	fef42623          	sw	a5,-20(s0)
    80002698:	fec42783          	lw	a5,-20(s0)
    8000269c:	0017879b          	addiw	a5,a5,1
    800026a0:	0007879b          	sext.w	a5,a5
    800026a4:	0007879b          	sext.w	a5,a5
    800026a8:	00078713          	mv	a4,a5
    800026ac:	3e700793          	li	a5,999
    800026b0:	00e7fc63          	bgeu	a5,a4,800026c8 <_vprintf+0x64>
    800026b4:	00000517          	auipc	a0,0x0
    800026b8:	75c50513          	addi	a0,a0,1884 # 80002e10 <BSS_END+0x70>
    800026bc:	a91ff0ef          	jal	ra,8000214c <uart_puts>
    800026c0:	00000013          	nop
    800026c4:	ffdff06f          	j	800026c0 <_vprintf+0x5c>
    800026c8:	fec42783          	lw	a5,-20(s0)
    800026cc:	0017879b          	addiw	a5,a5,1
    800026d0:	0007879b          	sext.w	a5,a5
    800026d4:	fd043683          	ld	a3,-48(s0)
    800026d8:	fd843603          	ld	a2,-40(s0)
    800026dc:	00078593          	mv	a1,a5
    800026e0:	00001517          	auipc	a0,0x1
    800026e4:	92050513          	addi	a0,a0,-1760 # 80003000 <out_buf>
    800026e8:	abdff0ef          	jal	ra,800021a4 <_vsnprintf>
    800026ec:	00001517          	auipc	a0,0x1
    800026f0:	91450513          	addi	a0,a0,-1772 # 80003000 <out_buf>
    800026f4:	a59ff0ef          	jal	ra,8000214c <uart_puts>
    800026f8:	fec42783          	lw	a5,-20(s0)
    800026fc:	00078513          	mv	a0,a5
    80002700:	02813083          	ld	ra,40(sp)
    80002704:	02013403          	ld	s0,32(sp)
    80002708:	03010113          	addi	sp,sp,48
    8000270c:	00008067          	ret

0000000080002710 <printf>:
    80002710:	f9010113          	addi	sp,sp,-112
    80002714:	02113423          	sd	ra,40(sp)
    80002718:	02813023          	sd	s0,32(sp)
    8000271c:	03010413          	addi	s0,sp,48
    80002720:	fca43c23          	sd	a0,-40(s0)
    80002724:	00b43423          	sd	a1,8(s0)
    80002728:	00c43823          	sd	a2,16(s0)
    8000272c:	00d43c23          	sd	a3,24(s0)
    80002730:	02e43023          	sd	a4,32(s0)
    80002734:	02f43423          	sd	a5,40(s0)
    80002738:	03043823          	sd	a6,48(s0)
    8000273c:	03143c23          	sd	a7,56(s0)
    80002740:	fe042623          	sw	zero,-20(s0)
    80002744:	04040793          	addi	a5,s0,64
    80002748:	fcf43823          	sd	a5,-48(s0)
    8000274c:	fd043783          	ld	a5,-48(s0)
    80002750:	fc878793          	addi	a5,a5,-56
    80002754:	fef43023          	sd	a5,-32(s0)
    80002758:	fe043783          	ld	a5,-32(s0)
    8000275c:	00078593          	mv	a1,a5
    80002760:	fd843503          	ld	a0,-40(s0)
    80002764:	f01ff0ef          	jal	ra,80002664 <_vprintf>
    80002768:	00050793          	mv	a5,a0
    8000276c:	fef42623          	sw	a5,-20(s0)
    80002770:	fec42783          	lw	a5,-20(s0)
    80002774:	00078513          	mv	a0,a5
    80002778:	02813083          	ld	ra,40(sp)
    8000277c:	02013403          	ld	s0,32(sp)
    80002780:	07010113          	addi	sp,sp,112
    80002784:	00008067          	ret

0000000080002788 <panic>:
    80002788:	fe010113          	addi	sp,sp,-32
    8000278c:	00113c23          	sd	ra,24(sp)
    80002790:	00813823          	sd	s0,16(sp)
    80002794:	02010413          	addi	s0,sp,32
    80002798:	fea43423          	sd	a0,-24(s0)
    8000279c:	00000517          	auipc	a0,0x0
    800027a0:	69c50513          	addi	a0,a0,1692 # 80002e38 <BSS_END+0x98>
    800027a4:	f6dff0ef          	jal	ra,80002710 <printf>
    800027a8:	fe843503          	ld	a0,-24(s0)
    800027ac:	f65ff0ef          	jal	ra,80002710 <printf>
    800027b0:	00000517          	auipc	a0,0x0
    800027b4:	69050513          	addi	a0,a0,1680 # 80002e40 <BSS_END+0xa0>
    800027b8:	f59ff0ef          	jal	ra,80002710 <printf>
    800027bc:	00000013          	nop
    800027c0:	ffdff06f          	j	800027bc <panic+0x34>

00000000800027c4 <_clear>:
    800027c4:	fe010113          	addi	sp,sp,-32
    800027c8:	00813c23          	sd	s0,24(sp)
    800027cc:	02010413          	addi	s0,sp,32
    800027d0:	fea43423          	sd	a0,-24(s0)
    800027d4:	fe843783          	ld	a5,-24(s0)
    800027d8:	00078023          	sb	zero,0(a5)
    800027dc:	00000013          	nop
    800027e0:	01813403          	ld	s0,24(sp)
    800027e4:	02010113          	addi	sp,sp,32
    800027e8:	00008067          	ret

00000000800027ec <_is_free>:
    800027ec:	fe010113          	addi	sp,sp,-32
    800027f0:	00813c23          	sd	s0,24(sp)
    800027f4:	02010413          	addi	s0,sp,32
    800027f8:	fea43423          	sd	a0,-24(s0)
    800027fc:	fe843783          	ld	a5,-24(s0)
    80002800:	0007c783          	lbu	a5,0(a5)
    80002804:	0007879b          	sext.w	a5,a5
    80002808:	0017f793          	andi	a5,a5,1
    8000280c:	0007879b          	sext.w	a5,a5
    80002810:	00078663          	beqz	a5,8000281c <_is_free+0x30>
    80002814:	00000793          	li	a5,0
    80002818:	0080006f          	j	80002820 <_is_free+0x34>
    8000281c:	00100793          	li	a5,1
    80002820:	00078513          	mv	a0,a5
    80002824:	01813403          	ld	s0,24(sp)
    80002828:	02010113          	addi	sp,sp,32
    8000282c:	00008067          	ret

0000000080002830 <_set_flag>:
    80002830:	fe010113          	addi	sp,sp,-32
    80002834:	00813c23          	sd	s0,24(sp)
    80002838:	02010413          	addi	s0,sp,32
    8000283c:	fea43423          	sd	a0,-24(s0)
    80002840:	00058793          	mv	a5,a1
    80002844:	fef403a3          	sb	a5,-25(s0)
    80002848:	fe843783          	ld	a5,-24(s0)
    8000284c:	0007c783          	lbu	a5,0(a5)
    80002850:	fe744703          	lbu	a4,-25(s0)
    80002854:	00e7e7b3          	or	a5,a5,a4
    80002858:	0ff7f713          	zext.b	a4,a5
    8000285c:	fe843783          	ld	a5,-24(s0)
    80002860:	00e78023          	sb	a4,0(a5)
    80002864:	00000013          	nop
    80002868:	01813403          	ld	s0,24(sp)
    8000286c:	02010113          	addi	sp,sp,32
    80002870:	00008067          	ret

0000000080002874 <_is_last>:
    80002874:	fe010113          	addi	sp,sp,-32
    80002878:	00813c23          	sd	s0,24(sp)
    8000287c:	02010413          	addi	s0,sp,32
    80002880:	fea43423          	sd	a0,-24(s0)
    80002884:	fe843783          	ld	a5,-24(s0)
    80002888:	0007c783          	lbu	a5,0(a5)
    8000288c:	0007879b          	sext.w	a5,a5
    80002890:	0027f793          	andi	a5,a5,2
    80002894:	0007879b          	sext.w	a5,a5
    80002898:	00078663          	beqz	a5,800028a4 <_is_last+0x30>
    8000289c:	00100793          	li	a5,1
    800028a0:	0080006f          	j	800028a8 <_is_last+0x34>
    800028a4:	00000793          	li	a5,0
    800028a8:	00078513          	mv	a0,a5
    800028ac:	01813403          	ld	s0,24(sp)
    800028b0:	02010113          	addi	sp,sp,32
    800028b4:	00008067          	ret

00000000800028b8 <_align_page>:
    800028b8:	fd010113          	addi	sp,sp,-48
    800028bc:	02813423          	sd	s0,40(sp)
    800028c0:	03010413          	addi	s0,sp,48
    800028c4:	fca43c23          	sd	a0,-40(s0)
    800028c8:	000017b7          	lui	a5,0x1
    800028cc:	fff78793          	addi	a5,a5,-1 # fff <STACK_SIZE+0xbff>
    800028d0:	fef43423          	sd	a5,-24(s0)
    800028d4:	fd843703          	ld	a4,-40(s0)
    800028d8:	fe843783          	ld	a5,-24(s0)
    800028dc:	00f70733          	add	a4,a4,a5
    800028e0:	fe843783          	ld	a5,-24(s0)
    800028e4:	fff7c793          	not	a5,a5
    800028e8:	00f777b3          	and	a5,a4,a5
    800028ec:	00078513          	mv	a0,a5
    800028f0:	02813403          	ld	s0,40(sp)
    800028f4:	03010113          	addi	sp,sp,48
    800028f8:	00008067          	ret

00000000800028fc <page_init>:
    800028fc:	fe010113          	addi	sp,sp,-32
    80002900:	00113c23          	sd	ra,24(sp)
    80002904:	00813823          	sd	s0,16(sp)
    80002908:	02010413          	addi	s0,sp,32
    8000290c:	00000797          	auipc	a5,0x0
    80002910:	45478793          	addi	a5,a5,1108 # 80002d60 <HEAP_SIZE>
    80002914:	0007b783          	ld	a5,0(a5)
    80002918:	00c7d793          	srli	a5,a5,0xc
    8000291c:	ff878713          	addi	a4,a5,-8
    80002920:	00001797          	auipc	a5,0x1
    80002924:	ad878793          	addi	a5,a5,-1320 # 800033f8 <_num_pages>
    80002928:	00e7b023          	sd	a4,0(a5)
    8000292c:	00000797          	auipc	a5,0x0
    80002930:	42c78793          	addi	a5,a5,1068 # 80002d58 <HEAP_START>
    80002934:	0007b703          	ld	a4,0(a5)
    80002938:	00000797          	auipc	a5,0x0
    8000293c:	42878793          	addi	a5,a5,1064 # 80002d60 <HEAP_SIZE>
    80002940:	0007b603          	ld	a2,0(a5)
    80002944:	00001797          	auipc	a5,0x1
    80002948:	ab478793          	addi	a5,a5,-1356 # 800033f8 <_num_pages>
    8000294c:	0007b783          	ld	a5,0(a5)
    80002950:	00078693          	mv	a3,a5
    80002954:	00070593          	mv	a1,a4
    80002958:	00000517          	auipc	a0,0x0
    8000295c:	4f050513          	addi	a0,a0,1264 # 80002e48 <BSS_END+0xa8>
    80002960:	db1ff0ef          	jal	ra,80002710 <printf>
    80002964:	00000797          	auipc	a5,0x0
    80002968:	3f478793          	addi	a5,a5,1012 # 80002d58 <HEAP_START>
    8000296c:	0007b783          	ld	a5,0(a5)
    80002970:	fef43423          	sd	a5,-24(s0)
    80002974:	fe042223          	sw	zero,-28(s0)
    80002978:	0240006f          	j	8000299c <page_init+0xa0>
    8000297c:	fe843503          	ld	a0,-24(s0)
    80002980:	e45ff0ef          	jal	ra,800027c4 <_clear>
    80002984:	fe843783          	ld	a5,-24(s0)
    80002988:	00178793          	addi	a5,a5,1
    8000298c:	fef43423          	sd	a5,-24(s0)
    80002990:	fe442783          	lw	a5,-28(s0)
    80002994:	0017879b          	addiw	a5,a5,1
    80002998:	fef42223          	sw	a5,-28(s0)
    8000299c:	fe442703          	lw	a4,-28(s0)
    800029a0:	00001797          	auipc	a5,0x1
    800029a4:	a5878793          	addi	a5,a5,-1448 # 800033f8 <_num_pages>
    800029a8:	0007b783          	ld	a5,0(a5)
    800029ac:	fcf768e3          	bltu	a4,a5,8000297c <page_init+0x80>
    800029b0:	00000797          	auipc	a5,0x0
    800029b4:	3a878793          	addi	a5,a5,936 # 80002d58 <HEAP_START>
    800029b8:	0007b703          	ld	a4,0(a5)
    800029bc:	000087b7          	lui	a5,0x8
    800029c0:	00f707b3          	add	a5,a4,a5
    800029c4:	00078513          	mv	a0,a5
    800029c8:	ef1ff0ef          	jal	ra,800028b8 <_align_page>
    800029cc:	00050713          	mv	a4,a0
    800029d0:	00001797          	auipc	a5,0x1
    800029d4:	a1878793          	addi	a5,a5,-1512 # 800033e8 <_alloc_start>
    800029d8:	00e7b023          	sd	a4,0(a5)
    800029dc:	00001797          	auipc	a5,0x1
    800029e0:	a1c78793          	addi	a5,a5,-1508 # 800033f8 <_num_pages>
    800029e4:	0007b783          	ld	a5,0(a5)
    800029e8:	00c79713          	slli	a4,a5,0xc
    800029ec:	00001797          	auipc	a5,0x1
    800029f0:	9fc78793          	addi	a5,a5,-1540 # 800033e8 <_alloc_start>
    800029f4:	0007b783          	ld	a5,0(a5)
    800029f8:	00f70733          	add	a4,a4,a5
    800029fc:	00001797          	auipc	a5,0x1
    80002a00:	9f478793          	addi	a5,a5,-1548 # 800033f0 <_alloc_end>
    80002a04:	00e7b023          	sd	a4,0(a5)
    80002a08:	00000797          	auipc	a5,0x0
    80002a0c:	36078793          	addi	a5,a5,864 # 80002d68 <TEXT_START>
    80002a10:	0007b703          	ld	a4,0(a5)
    80002a14:	00000797          	auipc	a5,0x0
    80002a18:	35c78793          	addi	a5,a5,860 # 80002d70 <TEXT_END>
    80002a1c:	0007b783          	ld	a5,0(a5)
    80002a20:	00078613          	mv	a2,a5
    80002a24:	00070593          	mv	a1,a4
    80002a28:	00000517          	auipc	a0,0x0
    80002a2c:	45850513          	addi	a0,a0,1112 # 80002e80 <BSS_END+0xe0>
    80002a30:	ce1ff0ef          	jal	ra,80002710 <printf>
    80002a34:	00000797          	auipc	a5,0x0
    80002a38:	35478793          	addi	a5,a5,852 # 80002d88 <RODATA_START>
    80002a3c:	0007b703          	ld	a4,0(a5)
    80002a40:	00000797          	auipc	a5,0x0
    80002a44:	35078793          	addi	a5,a5,848 # 80002d90 <RODATA_END>
    80002a48:	0007b783          	ld	a5,0(a5)
    80002a4c:	00078613          	mv	a2,a5
    80002a50:	00070593          	mv	a1,a4
    80002a54:	00000517          	auipc	a0,0x0
    80002a58:	44450513          	addi	a0,a0,1092 # 80002e98 <BSS_END+0xf8>
    80002a5c:	cb5ff0ef          	jal	ra,80002710 <printf>
    80002a60:	00000797          	auipc	a5,0x0
    80002a64:	31878793          	addi	a5,a5,792 # 80002d78 <DATA_START>
    80002a68:	0007b703          	ld	a4,0(a5)
    80002a6c:	00000797          	auipc	a5,0x0
    80002a70:	31478793          	addi	a5,a5,788 # 80002d80 <DATA_END>
    80002a74:	0007b783          	ld	a5,0(a5)
    80002a78:	00078613          	mv	a2,a5
    80002a7c:	00070593          	mv	a1,a4
    80002a80:	00000517          	auipc	a0,0x0
    80002a84:	43050513          	addi	a0,a0,1072 # 80002eb0 <BSS_END+0x110>
    80002a88:	c89ff0ef          	jal	ra,80002710 <printf>
    80002a8c:	00000797          	auipc	a5,0x0
    80002a90:	30c78793          	addi	a5,a5,780 # 80002d98 <BSS_START>
    80002a94:	0007b703          	ld	a4,0(a5)
    80002a98:	00000797          	auipc	a5,0x0
    80002a9c:	30878793          	addi	a5,a5,776 # 80002da0 <BSS_END>
    80002aa0:	0007b783          	ld	a5,0(a5)
    80002aa4:	00078613          	mv	a2,a5
    80002aa8:	00070593          	mv	a1,a4
    80002aac:	00000517          	auipc	a0,0x0
    80002ab0:	41c50513          	addi	a0,a0,1052 # 80002ec8 <BSS_END+0x128>
    80002ab4:	c5dff0ef          	jal	ra,80002710 <printf>
    80002ab8:	00001797          	auipc	a5,0x1
    80002abc:	93078793          	addi	a5,a5,-1744 # 800033e8 <_alloc_start>
    80002ac0:	0007b703          	ld	a4,0(a5)
    80002ac4:	00001797          	auipc	a5,0x1
    80002ac8:	92c78793          	addi	a5,a5,-1748 # 800033f0 <_alloc_end>
    80002acc:	0007b783          	ld	a5,0(a5)
    80002ad0:	00078613          	mv	a2,a5
    80002ad4:	00070593          	mv	a1,a4
    80002ad8:	00000517          	auipc	a0,0x0
    80002adc:	40850513          	addi	a0,a0,1032 # 80002ee0 <BSS_END+0x140>
    80002ae0:	c31ff0ef          	jal	ra,80002710 <printf>
    80002ae4:	00000013          	nop
    80002ae8:	01813083          	ld	ra,24(sp)
    80002aec:	01013403          	ld	s0,16(sp)
    80002af0:	02010113          	addi	sp,sp,32
    80002af4:	00008067          	ret

0000000080002af8 <page_alloc>:
    80002af8:	fa010113          	addi	sp,sp,-96
    80002afc:	04113c23          	sd	ra,88(sp)
    80002b00:	04813823          	sd	s0,80(sp)
    80002b04:	06010413          	addi	s0,sp,96
    80002b08:	00050793          	mv	a5,a0
    80002b0c:	faf42623          	sw	a5,-84(s0)
    80002b10:	fe042623          	sw	zero,-20(s0)
    80002b14:	00000797          	auipc	a5,0x0
    80002b18:	24478793          	addi	a5,a5,580 # 80002d58 <HEAP_START>
    80002b1c:	0007b783          	ld	a5,0(a5)
    80002b20:	fef43023          	sd	a5,-32(s0)
    80002b24:	fc042e23          	sw	zero,-36(s0)
    80002b28:	1380006f          	j	80002c60 <page_alloc+0x168>
    80002b2c:	fe043503          	ld	a0,-32(s0)
    80002b30:	cbdff0ef          	jal	ra,800027ec <_is_free>
    80002b34:	00050793          	mv	a5,a0
    80002b38:	10078863          	beqz	a5,80002c48 <page_alloc+0x150>
    80002b3c:	00100793          	li	a5,1
    80002b40:	fef42623          	sw	a5,-20(s0)
    80002b44:	fe043783          	ld	a5,-32(s0)
    80002b48:	fcf43823          	sd	a5,-48(s0)
    80002b4c:	fdc42783          	lw	a5,-36(s0)
    80002b50:	fcf42623          	sw	a5,-52(s0)
    80002b54:	0340006f          	j	80002b88 <page_alloc+0x90>
    80002b58:	fd043503          	ld	a0,-48(s0)
    80002b5c:	c91ff0ef          	jal	ra,800027ec <_is_free>
    80002b60:	00050793          	mv	a5,a0
    80002b64:	00079663          	bnez	a5,80002b70 <page_alloc+0x78>
    80002b68:	fe042623          	sw	zero,-20(s0)
    80002b6c:	03c0006f          	j	80002ba8 <page_alloc+0xb0>
    80002b70:	fd043783          	ld	a5,-48(s0)
    80002b74:	00178793          	addi	a5,a5,1
    80002b78:	fcf43823          	sd	a5,-48(s0)
    80002b7c:	fcc42783          	lw	a5,-52(s0)
    80002b80:	0017879b          	addiw	a5,a5,1
    80002b84:	fcf42623          	sw	a5,-52(s0)
    80002b88:	fdc42783          	lw	a5,-36(s0)
    80002b8c:	00078713          	mv	a4,a5
    80002b90:	fac42783          	lw	a5,-84(s0)
    80002b94:	00f707bb          	addw	a5,a4,a5
    80002b98:	0007871b          	sext.w	a4,a5
    80002b9c:	fcc42783          	lw	a5,-52(s0)
    80002ba0:	0007879b          	sext.w	a5,a5
    80002ba4:	fae7cae3          	blt	a5,a4,80002b58 <page_alloc+0x60>
    80002ba8:	fec42783          	lw	a5,-20(s0)
    80002bac:	0007879b          	sext.w	a5,a5
    80002bb0:	08078c63          	beqz	a5,80002c48 <page_alloc+0x150>
    80002bb4:	fe043783          	ld	a5,-32(s0)
    80002bb8:	fcf43023          	sd	a5,-64(s0)
    80002bbc:	fdc42783          	lw	a5,-36(s0)
    80002bc0:	faf42e23          	sw	a5,-68(s0)
    80002bc4:	0280006f          	j	80002bec <page_alloc+0xf4>
    80002bc8:	00100593          	li	a1,1
    80002bcc:	fc043503          	ld	a0,-64(s0)
    80002bd0:	c61ff0ef          	jal	ra,80002830 <_set_flag>
    80002bd4:	fc043783          	ld	a5,-64(s0)
    80002bd8:	00178793          	addi	a5,a5,1
    80002bdc:	fcf43023          	sd	a5,-64(s0)
    80002be0:	fbc42783          	lw	a5,-68(s0)
    80002be4:	0017879b          	addiw	a5,a5,1
    80002be8:	faf42e23          	sw	a5,-68(s0)
    80002bec:	fdc42783          	lw	a5,-36(s0)
    80002bf0:	00078713          	mv	a4,a5
    80002bf4:	fac42783          	lw	a5,-84(s0)
    80002bf8:	00f707bb          	addw	a5,a4,a5
    80002bfc:	0007871b          	sext.w	a4,a5
    80002c00:	fbc42783          	lw	a5,-68(s0)
    80002c04:	0007879b          	sext.w	a5,a5
    80002c08:	fce7c0e3          	blt	a5,a4,80002bc8 <page_alloc+0xd0>
    80002c0c:	fc043783          	ld	a5,-64(s0)
    80002c10:	fff78793          	addi	a5,a5,-1
    80002c14:	fcf43023          	sd	a5,-64(s0)
    80002c18:	00200593          	li	a1,2
    80002c1c:	fc043503          	ld	a0,-64(s0)
    80002c20:	c11ff0ef          	jal	ra,80002830 <_set_flag>
    80002c24:	fdc42783          	lw	a5,-36(s0)
    80002c28:	00c7979b          	slliw	a5,a5,0xc
    80002c2c:	0007879b          	sext.w	a5,a5
    80002c30:	00078713          	mv	a4,a5
    80002c34:	00000797          	auipc	a5,0x0
    80002c38:	7b478793          	addi	a5,a5,1972 # 800033e8 <_alloc_start>
    80002c3c:	0007b783          	ld	a5,0(a5)
    80002c40:	00f707b3          	add	a5,a4,a5
    80002c44:	03c0006f          	j	80002c80 <page_alloc+0x188>
    80002c48:	fe043783          	ld	a5,-32(s0)
    80002c4c:	00178793          	addi	a5,a5,1
    80002c50:	fef43023          	sd	a5,-32(s0)
    80002c54:	fdc42783          	lw	a5,-36(s0)
    80002c58:	0017879b          	addiw	a5,a5,1
    80002c5c:	fcf42e23          	sw	a5,-36(s0)
    80002c60:	fdc42703          	lw	a4,-36(s0)
    80002c64:	00000797          	auipc	a5,0x0
    80002c68:	79478793          	addi	a5,a5,1940 # 800033f8 <_num_pages>
    80002c6c:	0007b683          	ld	a3,0(a5)
    80002c70:	fac42783          	lw	a5,-84(s0)
    80002c74:	40f687b3          	sub	a5,a3,a5
    80002c78:	eae7fae3          	bgeu	a5,a4,80002b2c <page_alloc+0x34>
    80002c7c:	00000793          	li	a5,0
    80002c80:	00078513          	mv	a0,a5
    80002c84:	05813083          	ld	ra,88(sp)
    80002c88:	05013403          	ld	s0,80(sp)
    80002c8c:	06010113          	addi	sp,sp,96
    80002c90:	00008067          	ret

0000000080002c94 <page_free>:
    80002c94:	fd010113          	addi	sp,sp,-48
    80002c98:	02113423          	sd	ra,40(sp)
    80002c9c:	02813023          	sd	s0,32(sp)
    80002ca0:	03010413          	addi	s0,sp,48
    80002ca4:	fca43c23          	sd	a0,-40(s0)
    80002ca8:	fd843783          	ld	a5,-40(s0)
    80002cac:	08078a63          	beqz	a5,80002d40 <page_free+0xac>
    80002cb0:	fd843703          	ld	a4,-40(s0)
    80002cb4:	00000797          	auipc	a5,0x0
    80002cb8:	73c78793          	addi	a5,a5,1852 # 800033f0 <_alloc_end>
    80002cbc:	0007b783          	ld	a5,0(a5)
    80002cc0:	08f77063          	bgeu	a4,a5,80002d40 <page_free+0xac>
    80002cc4:	00000797          	auipc	a5,0x0
    80002cc8:	09478793          	addi	a5,a5,148 # 80002d58 <HEAP_START>
    80002ccc:	0007b783          	ld	a5,0(a5)
    80002cd0:	fef43423          	sd	a5,-24(s0)
    80002cd4:	fd843703          	ld	a4,-40(s0)
    80002cd8:	00000797          	auipc	a5,0x0
    80002cdc:	71078793          	addi	a5,a5,1808 # 800033e8 <_alloc_start>
    80002ce0:	0007b783          	ld	a5,0(a5)
    80002ce4:	40f707b3          	sub	a5,a4,a5
    80002ce8:	00c7d793          	srli	a5,a5,0xc
    80002cec:	fe843703          	ld	a4,-24(s0)
    80002cf0:	00f707b3          	add	a5,a4,a5
    80002cf4:	fef43423          	sd	a5,-24(s0)
    80002cf8:	0340006f          	j	80002d2c <page_free+0x98>
    80002cfc:	fe843503          	ld	a0,-24(s0)
    80002d00:	b75ff0ef          	jal	ra,80002874 <_is_last>
    80002d04:	00050793          	mv	a5,a0
    80002d08:	00078863          	beqz	a5,80002d18 <page_free+0x84>
    80002d0c:	fe843503          	ld	a0,-24(s0)
    80002d10:	ab5ff0ef          	jal	ra,800027c4 <_clear>
    80002d14:	0300006f          	j	80002d44 <page_free+0xb0>
    80002d18:	fe843503          	ld	a0,-24(s0)
    80002d1c:	aa9ff0ef          	jal	ra,800027c4 <_clear>
    80002d20:	fe843783          	ld	a5,-24(s0)
    80002d24:	00178793          	addi	a5,a5,1
    80002d28:	fef43423          	sd	a5,-24(s0)
    80002d2c:	fe843503          	ld	a0,-24(s0)
    80002d30:	abdff0ef          	jal	ra,800027ec <_is_free>
    80002d34:	00050793          	mv	a5,a0
    80002d38:	fc0782e3          	beqz	a5,80002cfc <page_free+0x68>
    80002d3c:	0080006f          	j	80002d44 <page_free+0xb0>
    80002d40:	00000013          	nop
    80002d44:	02813083          	ld	ra,40(sp)
    80002d48:	02013403          	ld	s0,32(sp)
    80002d4c:	03010113          	addi	sp,sp,48
    80002d50:	00008067          	ret
